
MEGA328_LCD.elf:     file format elf32-avr

Sections:
Idx Name          Size      VMA       LMA       File off  Algn
  0 .data         00000046  00800100  00003a2e  00003aa2  2**0
                  CONTENTS, ALLOC, LOAD, DATA
  1 .text         00003a2e  00000000  00000000  00000074  2**1
                  CONTENTS, ALLOC, LOAD, READONLY, CODE
  2 .bss          000001e8  00800146  00003a74  00003ae8  2**0
                  ALLOC
  3 .stab         00000360  00000000  00000000  00003ae8  2**2
                  CONTENTS, READONLY, DEBUGGING
  4 .stabstr      0000005f  00000000  00000000  00003e48  2**0
                  CONTENTS, READONLY, DEBUGGING
  5 .debug_aranges 00000040  00000000  00000000  00003ea7  2**0
                  CONTENTS, READONLY, DEBUGGING
  6 .debug_pubnames 00000299  00000000  00000000  00003ee7  2**0
                  CONTENTS, READONLY, DEBUGGING
  7 .debug_info   000013d8  00000000  00000000  00004180  2**0
                  CONTENTS, READONLY, DEBUGGING
  8 .debug_abbrev 0000051d  00000000  00000000  00005558  2**0
                  CONTENTS, READONLY, DEBUGGING
  9 .debug_line   00000a62  00000000  00000000  00005a75  2**0
                  CONTENTS, READONLY, DEBUGGING
 10 .debug_frame  00000170  00000000  00000000  000064d8  2**2
                  CONTENTS, READONLY, DEBUGGING
 11 .debug_str    00000561  00000000  00000000  00006648  2**0
                  CONTENTS, READONLY, DEBUGGING
 12 .debug_loc    00000bae  00000000  00000000  00006ba9  2**0
                  CONTENTS, READONLY, DEBUGGING
 13 .debug_ranges 00000018  00000000  00000000  00007757  2**0
                  CONTENTS, READONLY, DEBUGGING
Disassembly of section .text:

00000000 <__vectors>:
       0:	0c 94 45 17 	jmp	0x2e8a	; 0x2e8a <__ctors_end>
       4:	0c 94 60 17 	jmp	0x2ec0	; 0x2ec0 <__bad_interrupt>
       8:	0c 94 60 17 	jmp	0x2ec0	; 0x2ec0 <__bad_interrupt>
       c:	0c 94 60 17 	jmp	0x2ec0	; 0x2ec0 <__bad_interrupt>
      10:	0c 94 60 17 	jmp	0x2ec0	; 0x2ec0 <__bad_interrupt>
      14:	0c 94 60 17 	jmp	0x2ec0	; 0x2ec0 <__bad_interrupt>
      18:	0c 94 60 17 	jmp	0x2ec0	; 0x2ec0 <__bad_interrupt>
      1c:	0c 94 60 17 	jmp	0x2ec0	; 0x2ec0 <__bad_interrupt>
      20:	0c 94 60 17 	jmp	0x2ec0	; 0x2ec0 <__bad_interrupt>
      24:	0c 94 60 17 	jmp	0x2ec0	; 0x2ec0 <__bad_interrupt>
      28:	0c 94 60 17 	jmp	0x2ec0	; 0x2ec0 <__bad_interrupt>
      2c:	0c 94 60 17 	jmp	0x2ec0	; 0x2ec0 <__bad_interrupt>
      30:	0c 94 60 17 	jmp	0x2ec0	; 0x2ec0 <__bad_interrupt>
      34:	0c 94 60 17 	jmp	0x2ec0	; 0x2ec0 <__bad_interrupt>
      38:	0c 94 60 17 	jmp	0x2ec0	; 0x2ec0 <__bad_interrupt>
      3c:	0c 94 60 17 	jmp	0x2ec0	; 0x2ec0 <__bad_interrupt>
      40:	0c 94 60 17 	jmp	0x2ec0	; 0x2ec0 <__bad_interrupt>
      44:	0c 94 60 17 	jmp	0x2ec0	; 0x2ec0 <__bad_interrupt>
      48:	0c 94 60 17 	jmp	0x2ec0	; 0x2ec0 <__bad_interrupt>
      4c:	0c 94 60 17 	jmp	0x2ec0	; 0x2ec0 <__bad_interrupt>
      50:	0c 94 60 17 	jmp	0x2ec0	; 0x2ec0 <__bad_interrupt>
      54:	0c 94 60 17 	jmp	0x2ec0	; 0x2ec0 <__bad_interrupt>
      58:	0c 94 60 17 	jmp	0x2ec0	; 0x2ec0 <__bad_interrupt>
      5c:	0c 94 60 17 	jmp	0x2ec0	; 0x2ec0 <__bad_interrupt>
      60:	0c 94 60 17 	jmp	0x2ec0	; 0x2ec0 <__bad_interrupt>
      64:	0c 94 60 17 	jmp	0x2ec0	; 0x2ec0 <__bad_interrupt>

00000068 <__c.1745>:
      68:	45 6c 65 63 74 72 6f 6e 69 63 73 00                 Electronics.

00000074 <__c.1743>:
      74:	4c 61 62 63 65 6e 74 65 72 00                       Labcenter.

0000007e <icon1_char_table>:
      7e:	ff ff ff fc 80 00 00 04 80 00 00 04 80 00 00 c4     ................
      8e:	80 00 01 24 8f 02 02 14 89 12 02 14 8b 07 01 24     ...$...........$
      9e:	8f 92 00 c4 88 d2 00 04 88 52 00 04 8f d3 80 04     .........R......
      ae:	80 00 00 04 80 00 00 04 80 00 00 04 88 20 00 04     ............. ..
      be:	8c 60 00 04 8e e0 00 04 8b a0 00 04 89 20 07 04     .`........... ..
      ce:	88 27 8d 84 88 2c 88 84 88 28 88 84 88 2c 8d 84     .'...,...(...,..
      de:	88 27 cf 04 80 00 08 04 80 00 08 04 80 00 08 04     .'..............
      ee:	80 00 00 04 ff ff ff fc                             ........

000000f6 <icon1_bmp>:
      f6:	1e 1e 7e 00                                         ..~.

000000fa <frame_char_table>:
      fa:	03 ff ff ff ff ff ff ff ff ff ff ff ff ff f0 00     ................
     10a:	0c 00 00 00 00 00 00 00 00 00 00 00 00 00 0c 00     ................
     11a:	10 00 00 00 00 00 00 00 00 00 00 00 00 00 02 00     ................
     12a:	20 00 00 00 00 00 00 00 00 00 00 00 00 00 01 00      ...............
     13a:	40 00 00 00 00 00 00 00 00 00 00 00 00 00 00 80     @...............
     14a:	40 00 00 00 00 00 00 00 00 00 00 00 00 00 00 80     @...............
     15a:	80 00 00 00 00 00 00 00 00 00 00 00 00 00 00 40     ...............@
     16a:	80 00 00 00 00 00 00 00 00 00 00 00 03 f0 00 40     ...............@
     17a:	80 00 00 00 00 00 00 00 00 00 00 00 0c 0c 00 40     ...............@
     18a:	80 00 00 00 00 00 00 00 00 00 00 00 30 03 00 40     ............0..@
     19a:	80 00 00 00 00 00 00 00 00 00 00 00 40 00 80 40     ............@..@
     1aa:	80 00 00 00 00 00 00 00 00 00 00 00 40 00 80 40     ............@..@
     1ba:	80 00 00 00 00 00 00 00 00 00 00 00 80 00 40 40     ..............@@
     1ca:	80 00 00 00 00 00 00 00 00 00 00 00 80 00 40 40     ..............@@
     1da:	80 00 00 00 00 00 00 00 00 00 00 01 00 00 20 40     .............. @
     1ea:	80 00 00 00 00 00 00 00 00 00 00 01 00 00 20 40     .............. @
     1fa:	80 00 00 00 00 00 00 00 00 00 00 01 00 00 20 40     .............. @
     20a:	80 00 00 00 00 00 00 00 00 00 00 01 00 00 20 40     .............. @
     21a:	80 00 00 00 00 00 00 00 00 00 00 00 80 00 40 40     ..............@@
     22a:	80 00 00 00 00 00 00 00 00 00 00 00 80 00 40 40     ..............@@
     23a:	80 00 00 00 00 00 00 00 00 00 00 00 40 00 80 40     ............@..@
     24a:	80 00 00 00 00 00 00 00 00 00 00 00 40 00 80 40     ............@..@
     25a:	80 00 00 00 00 00 00 00 00 00 00 00 30 03 00 40     ............0..@
     26a:	80 00 00 00 00 00 00 00 00 00 00 00 0c 0c 00 40     ...............@
     27a:	80 00 00 00 00 00 00 00 00 00 00 00 03 f0 00 40     ...............@
     28a:	80 00 00 00 00 00 00 00 00 00 00 00 00 00 00 40     ...............@
     29a:	40 00 00 00 00 00 00 00 00 00 00 00 00 00 00 80     @...............
     2aa:	40 00 00 00 00 00 00 00 00 00 00 00 00 00 00 80     @...............
     2ba:	20 00 00 00 00 00 00 00 00 00 00 00 00 00 01 00      ...............
     2ca:	10 00 00 00 00 00 00 00 00 00 00 00 00 00 02 00     ................
     2da:	0c 00 00 00 00 00 00 00 00 00 00 00 00 00 0c 00     ................
     2ea:	03 ff ff ff ff ff ff ff ff ff ff ff ff ff f0 00     ................

000002fa <frame_bmp>:
     2fa:	7a 20 fa 00                                         z ..

000002fe <fonts>:
     2fe:	02 08 30 03 00 20 09 20 7e 2e 02 08 7f 09 00 7f     ..0.. . ~.......
     30e:	0f 20 7f 2e 01 0c df 0f 08 00 00 20 7e 2e 03 12     . ......... ~...
     31e:	53 14 00 5d 28 20 7e 2e 03 12 bc 28 00 6e 2e 20     S..]( ~....(.n. 
     32e:	3a 2e                                               :.

00000330 <six_dot_glyph_table>:
	...
     340:	80 00 80 00 80 00 80 00 00 00 80 00 00 00 00 00     ................
     350:	a0 00 a0 00 00 00 00 00 00 00 00 00 00 00 00 00     ................
     360:	00 00 14 00 7e 00 28 00 fc 00 50 00 00 00 00 00     ....~.(...P.....
     370:	20 00 70 00 80 00 60 00 10 00 e0 00 20 00 00 00      .p...`..... ...
     380:	64 00 a8 00 d0 00 2c 00 54 00 98 00 00 00 00 00     d.....,.T.......
     390:	60 00 90 00 40 00 98 00 90 00 60 00 00 00 00 00     `...@.....`.....
     3a0:	80 00 80 00 00 00 00 00 00 00 00 00 00 00 00 00     ................
     3b0:	20 00 40 00 80 00 80 00 80 00 80 00 40 00 20 00      .@.........@. .
     3c0:	80 00 40 00 20 00 20 00 20 00 20 00 40 00 80 00     ..@. . . . .@...
     3d0:	50 00 20 00 f8 00 20 00 50 00 00 00 00 00 00 00     P. ... .P.......
     3e0:	00 00 20 00 20 00 f8 00 20 00 20 00 00 00 00 00     .. . ... . .....
	...
     3f8:	00 00 40 00 40 00 80 00 00 00 00 00 00 00 f8 00     ..@.@...........
	...
     418:	00 00 80 00 00 00 00 00 20 00 20 00 40 00 40 00     ........ . .@.@.
     428:	80 00 80 00 00 00 00 00 60 00 90 00 90 00 90 00     ........`.......
     438:	90 00 60 00 00 00 00 00 40 00 c0 00 40 00 40 00     ..`.....@...@.@.
     448:	40 00 40 00 00 00 00 00 60 00 90 00 10 00 20 00     @.@.....`..... .
     458:	40 00 f0 00 00 00 00 00 60 00 90 00 20 00 10 00     @.......`... ...
     468:	90 00 60 00 00 00 00 00 20 00 60 00 a0 00 f0 00     ..`..... .`.....
     478:	20 00 20 00 00 00 00 00 f0 00 80 00 e0 00 10 00      . .............
     488:	90 00 60 00 00 00 00 00 20 00 40 00 e0 00 90 00     ..`..... .@.....
     498:	90 00 60 00 00 00 00 00 f0 00 10 00 20 00 40 00     ..`......... .@.
     4a8:	40 00 40 00 00 00 00 00 60 00 90 00 60 00 90 00     @.@.....`...`...
     4b8:	90 00 60 00 00 00 00 00 60 00 90 00 90 00 70 00     ..`.....`.....p.
     4c8:	20 00 40 00 00 00 00 00 00 00 00 00 80 00 00 00      .@.............
     4d8:	00 00 80 00 00 00 00 00 00 00 00 00 40 00 00 00     ............@...
     4e8:	00 00 40 00 40 00 80 00 00 00 20 00 40 00 80 00     ..@.@..... .@...
     4f8:	40 00 20 00 00 00 00 00 00 00 00 00 f0 00 00 00     @. .............
     508:	00 00 f0 00 00 00 00 00 00 00 80 00 40 00 20 00     ............@. .
     518:	40 00 80 00 00 00 00 00 c0 00 20 00 40 00 40 00     @......... .@.@.
     528:	00 00 40 00 00 00 00 00 3c 00 42 00 9a 00 aa 00     ..@.....<.B.....
     538:	b4 00 40 00 38 00 00 00 20 00 20 00 50 00 70 00     ..@.8... . .P.p.
     548:	88 00 88 00 00 00 00 00 e0 00 90 00 e0 00 90 00     ................
     558:	90 00 e0 00 00 00 00 00 60 00 90 00 80 00 80 00     ........`.......
     568:	90 00 60 00 00 00 00 00 e0 00 90 00 90 00 90 00     ..`.............
     578:	90 00 e0 00 00 00 00 00 e0 00 80 00 e0 00 80 00     ................
     588:	80 00 e0 00 00 00 00 00 e0 00 80 00 e0 00 80 00     ................
     598:	80 00 80 00 00 00 00 00 60 00 90 00 80 00 b0 00     ........`.......
     5a8:	90 00 60 00 00 00 00 00 90 00 90 00 f0 00 90 00     ..`.............
     5b8:	90 00 90 00 00 00 00 00 80 00 80 00 80 00 80 00     ................
     5c8:	80 00 80 00 00 00 00 00 10 00 10 00 10 00 10 00     ................
     5d8:	90 00 60 00 00 00 00 00 90 00 a0 00 c0 00 c0 00     ..`.............
     5e8:	a0 00 90 00 00 00 00 00 80 00 80 00 80 00 80 00     ................
     5f8:	80 00 e0 00 00 00 00 00 88 00 d8 00 a8 00 88 00     ................
     608:	88 00 88 00 00 00 00 00 90 00 d0 00 d0 00 b0 00     ................
     618:	b0 00 90 00 00 00 00 00 60 00 90 00 90 00 90 00     ........`.......
     628:	90 00 60 00 00 00 00 00 e0 00 90 00 90 00 e0 00     ..`.............
     638:	80 00 80 00 00 00 00 00 60 00 90 00 90 00 90 00     ........`.......
     648:	90 00 60 00 10 00 00 00 e0 00 90 00 90 00 e0 00     ..`.............
     658:	a0 00 90 00 00 00 00 00 60 00 90 00 40 00 20 00     ........`...@. .
     668:	90 00 60 00 00 00 00 00 f8 00 20 00 20 00 20 00     ..`....... . . .
     678:	20 00 20 00 00 00 00 00 90 00 90 00 90 00 90 00      . .............
     688:	90 00 60 00 00 00 00 00 88 00 88 00 50 00 50 00     ..`.........P.P.
     698:	20 00 20 00 00 00 00 00 88 80 88 80 55 00 55 00      . .........U.U.
     6a8:	22 00 22 00 00 00 00 00 88 00 50 00 20 00 20 00     ".".......P. . .
     6b8:	50 00 88 00 00 00 00 00 88 00 50 00 20 00 20 00     P.........P. . .
     6c8:	20 00 20 00 00 00 00 00 f0 00 10 00 20 00 40 00      . ......... .@.
     6d8:	80 00 f0 00 00 00 00 00 c0 00 80 00 80 00 80 00     ................
     6e8:	80 00 80 00 c0 00 00 00 80 00 80 00 40 00 40 00     ............@.@.
     6f8:	20 00 20 00 10 00 10 00 c0 00 40 00 40 00 40 00      . .......@.@.@.
     708:	40 00 40 00 c0 00 00 00 40 00 a0 00 00 00 00 00     @.@.....@.......
	...
     72c:	fc 00 00 00 80 00 40 00 00 00 00 00 00 00 00 00     ......@.........
	...
     744:	70 00 90 00 90 00 70 00 00 00 00 00 80 00 80 00     p.....p.........
     754:	e0 00 90 00 90 00 e0 00 00 00 00 00 00 00 00 00     ................
     764:	60 00 80 00 80 00 60 00 00 00 00 00 10 00 10 00     `.....`.........
     774:	70 00 90 00 90 00 70 00 00 00 00 00 00 00 00 00     p.....p.........
     784:	60 00 b0 00 80 00 60 00 00 00 00 00 60 00 80 00     `.....`.....`...
     794:	c0 00 80 00 80 00 80 00 00 00 00 00 00 00 00 00     ................
     7a4:	70 00 90 00 90 00 70 00 10 00 60 00 80 00 80 00     p.....p...`.....
     7b4:	e0 00 90 00 90 00 90 00 00 00 00 00 80 00 00 00     ................
     7c4:	80 00 80 00 80 00 80 00 00 00 00 00 40 00 00 00     ............@...
     7d4:	40 00 40 00 40 00 40 00 40 00 80 00 80 00 80 00     @.@.@.@.@.......
     7e4:	90 00 e0 00 a0 00 90 00 00 00 00 00 80 00 80 00     ................
     7f4:	80 00 80 00 80 00 80 00 00 00 00 00 00 00 00 00     ................
     804:	f0 00 a8 00 a8 00 a8 00 00 00 00 00 00 00 00 00     ................
     814:	e0 00 90 00 90 00 90 00 00 00 00 00 00 00 00 00     ................
     824:	60 00 90 00 90 00 60 00 00 00 00 00 00 00 00 00     `.....`.........
     834:	e0 00 90 00 90 00 e0 00 80 00 80 00 00 00 00 00     ................
     844:	70 00 90 00 90 00 70 00 10 00 10 00 00 00 00 00     p.....p.........
     854:	a0 00 c0 00 80 00 80 00 00 00 00 00 00 00 00 00     ................
     864:	60 00 c0 00 20 00 c0 00 00 00 00 00 00 00 80 00     `... ...........
     874:	c0 00 80 00 80 00 40 00 00 00 00 00 00 00 00 00     ......@.........
     884:	90 00 90 00 90 00 70 00 00 00 00 00 00 00 00 00     ......p.........
     894:	a0 00 a0 00 40 00 40 00 00 00 00 00 00 00 00 00     ....@.@.........
     8a4:	a8 00 a8 00 50 00 50 00 00 00 00 00 00 00 00 00     ....P.P.........
     8b4:	a0 00 40 00 40 00 a0 00 00 00 00 00 00 00 00 00     ..@.@...........
     8c4:	a0 00 a0 00 40 00 40 00 80 00 80 00 00 00 00 00     ....@.@.........
     8d4:	f0 00 20 00 40 00 f0 00 00 00 00 00 20 00 40 00     .. .@....... .@.
     8e4:	40 00 80 00 80 00 40 00 40 00 20 00 80 00 80 00     @.....@.@. .....
     8f4:	80 00 80 00 80 00 80 00 80 00 80 00 80 00 40 00     ..............@.
     904:	40 00 20 00 20 00 40 00 40 00 80 00 64 00 98 00     @. . .@.@...d...
	...

00000920 <six_dot_width_table>:
     920:	02 02 04 08 05 07 06 02 04 04 06 06 03 06 02 04     ................
     930:	05 03 05 05 05 05 05 05 05 05 02 03 04 05 04 04     ................
     940:	08 06 05 05 05 04 04 05 05 02 05 05 04 06 05 05     ................
     950:	05 05 05 05 06 05 06 0a 06 06 05 03 05 03 04 07     ................
     960:	03 05 05 04 05 05 04 05 05 02 03 05 02 06 05 05     ................
     970:	05 05 04 04 03 05 04 06 04 04 05 04 02 04 07        ...............

0000097f <seven_dot_glyph_table>:
	...
     98f:	60 00 60 00 60 00 60 00 60 00 00 00 60 00 00 00     `.`.`.`.`...`...
     99f:	48 00 48 00 00 00 00 00 00 00 00 00 00 00 00 00     H.H.............
     9af:	28 00 7c 00 7c 00 28 00 7c 00 7c 00 28 00 00 00     (.|.|.(.|.|.(...
     9bf:	3c 00 68 00 68 00 38 00 2c 00 2c 00 78 00 28 00     <.h.h.8.,.,.x.(.
     9cf:	64 00 6c 00 08 00 18 00 10 00 36 00 26 00 00 00     d.l.......6.&...
     9df:	3c 00 66 00 3c 00 7d 00 67 00 67 00 3d 00 00 00     <.f.<.}.g.g.=...
     9ef:	40 00 40 00 00 00 00 00 00 00 00 00 00 00 00 00     @.@.............
     9ff:	10 00 20 00 60 00 60 00 60 00 60 00 20 00 10 00     .. .`.`.`.`. ...
     a0f:	40 00 20 00 30 00 30 00 30 00 30 00 20 00 40 00     @. .0.0.0.0. .@.
     a1f:	10 00 54 00 7c 00 38 00 7c 00 54 00 10 00 00 00     ..T.|.8.|.T.....
     a2f:	00 00 10 00 10 00 7c 00 10 00 10 00 00 00 00 00     ......|.........
	...
     a47:	00 00 20 00 60 00 40 00 00 00 00 00 00 00 7c 00     .. .`.@.......|.
	...
     a67:	00 00 60 00 60 00 00 00 10 00 10 00 30 00 20 00     ..`.`.......0. .
     a77:	60 00 40 00 40 00 00 00 38 00 6c 00 6c 00 6c 00     `.@.@...8.l.l.l.
     a87:	6c 00 6c 00 38 00 00 00 30 00 70 00 30 00 30 00     l.l.8...0.p.0.0.
     a97:	30 00 30 00 30 00 00 00 78 00 0c 00 0c 00 38 00     0.0.0...x.....8.
     aa7:	60 00 60 00 7c 00 00 00 78 00 0c 00 0c 00 38 00     `.`.|...x.....8.
     ab7:	0c 00 0c 00 78 00 00 00 0c 00 1c 00 2c 00 4c 00     ....x.......,.L.
     ac7:	7c 00 0c 00 0c 00 00 00 78 00 40 00 78 00 0c 00     |.......x.@.x...
     ad7:	0c 00 0c 00 78 00 00 00 38 00 60 00 78 00 6c 00     ....x...8.`.x.l.
     ae7:	6c 00 6c 00 38 00 00 00 7c 00 0c 00 18 00 18 00     l.l.8...|.......
     af7:	30 00 30 00 30 00 00 00 38 00 6c 00 6c 00 38 00     0.0.0...8.l.l.8.
     b07:	6c 00 6c 00 38 00 00 00 38 00 6c 00 6c 00 6c 00     l.l.8...8.l.l.l.
     b17:	3c 00 0c 00 38 00 00 00 00 00 00 00 60 00 60 00     <...8.......`.`.
     b27:	00 00 60 00 60 00 00 00 00 00 00 00 60 00 60 00     ..`.`.......`.`.
     b37:	00 00 20 00 60 00 40 00 08 00 18 00 30 00 60 00     .. .`.@.....0.`.
     b47:	30 00 18 00 08 00 00 00 00 00 00 00 7c 00 00 00     0...........|...
     b57:	7c 00 00 00 00 00 00 00 40 00 60 00 30 00 18 00     |.......@.`.0...
     b67:	30 00 60 00 40 00 00 00 78 00 0c 00 18 00 30 00     0.`.@...x.....0.
     b77:	30 00 00 00 30 00 00 00 3c 00 66 00 7e 00 6e 00     0...0...<.f.~.n.
     b87:	7c 00 60 00 3e 00 00 00 3c 00 66 00 66 00 66 00     |.`.>...<.f.f.f.
     b97:	7e 00 66 00 66 00 00 00 7c 00 66 00 7c 00 66 00     ~.f.f...|.f.|.f.
     ba7:	66 00 66 00 7c 00 00 00 3c 00 60 00 60 00 60 00     f.f.|...<.`.`.`.
     bb7:	60 00 60 00 3c 00 00 00 7c 00 66 00 66 00 66 00     `.`.<...|.f.f.f.
     bc7:	66 00 66 00 7c 00 00 00 7c 00 60 00 7c 00 60 00     f.f.|...|.`.|.`.
     bd7:	60 00 60 00 7c 00 00 00 7c 00 60 00 7c 00 60 00     `.`.|...|.`.|.`.
     be7:	60 00 60 00 60 00 00 00 3e 00 60 00 60 00 66 00     `.`.`...>.`.`.f.
     bf7:	66 00 66 00 3e 00 00 00 66 00 66 00 7e 00 66 00     f.f.>...f.f.~.f.
     c07:	66 00 66 00 66 00 00 00 60 00 60 00 60 00 60 00     f.f.f...`.`.`.`.
     c17:	60 00 60 00 60 00 00 00 0c 00 0c 00 0c 00 0c 00     `.`.`...........
     c27:	0c 00 0c 00 78 00 00 00 66 00 6c 00 78 00 70 00     ....x...f.l.x.p.
     c37:	78 00 6c 00 66 00 00 00 60 00 60 00 60 00 60 00     x.l.f...`.`.`.`.
     c47:	60 00 60 00 7c 00 00 00 41 00 63 00 77 00 7f 00     `.`.|...A.c.w...
     c57:	6b 00 63 00 63 00 00 00 46 00 66 00 76 00 7e 00     k.c.c...F.f.v.~.
     c67:	6e 00 66 00 62 00 00 00 3c 00 66 00 66 00 66 00     n.f.b...<.f.f.f.
     c77:	66 00 66 00 3c 00 00 00 7c 00 66 00 66 00 66 00     f.f.<...|.f.f.f.
     c87:	7c 00 60 00 60 00 00 00 3c 00 66 00 66 00 66 00     |.`.`...<.f.f.f.
     c97:	66 00 6e 00 3c 00 06 00 7c 00 66 00 66 00 66 00     f.n.<...|.f.f.f.
     ca7:	7c 00 7c 00 66 00 00 00 38 00 60 00 60 00 30 00     |.|.f...8.`.`.0.
     cb7:	18 00 18 00 70 00 00 00 7e 00 18 00 18 00 18 00     ....p...~.......
     cc7:	18 00 18 00 18 00 00 00 66 00 66 00 66 00 66 00     ........f.f.f.f.
     cd7:	66 00 66 00 3c 00 00 00 66 00 66 00 66 00 3c 00     f.f.<...f.f.f.<.
     ce7:	3c 00 18 00 18 00 00 00 63 00 63 00 63 00 6b 00     <.......c.c.c.k.
     cf7:	3e 00 36 00 36 00 00 00 66 00 66 00 3c 00 18 00     >.6.6...f.f.<...
     d07:	3c 00 66 00 66 00 00 00 66 00 66 00 3c 00 18 00     <.f.f...f.f.<...
     d17:	18 00 18 00 18 00 00 00 7c 00 0c 00 1c 00 38 00     ........|.....8.
     d27:	70 00 60 00 7c 00 00 00 70 00 60 00 60 00 60 00     p.`.|...p.`.`.`.
     d37:	60 00 60 00 60 00 70 00 40 00 40 00 60 00 20 00     `.`.`.p.@.@.`. .
     d47:	30 00 10 00 10 00 00 00 70 00 30 00 30 00 30 00     0.......p.0.0.0.
     d57:	30 00 30 00 30 00 70 00 20 00 50 00 00 00 00 00     0.0.0.p. .P.....
	...
     d7b:	00 00 f8 00 20 00 60 00 40 00 00 00 00 00 00 00     .... .`.@.......
	...
     d93:	38 00 0c 00 3c 00 6c 00 3c 00 00 00 60 00 60 00     8...<.l.<...`.`.
     da3:	78 00 6c 00 6c 00 6c 00 78 00 00 00 00 00 00 00     x.l.l.l.x.......
     db3:	38 00 60 00 60 00 60 00 38 00 00 00 0c 00 0c 00     8.`.`.`.8.......
     dc3:	3c 00 6c 00 6c 00 6c 00 3c 00 00 00 00 00 00 00     <.l.l.l.<.......
     dd3:	38 00 6c 00 7c 00 60 00 3c 00 00 00 30 00 60 00     8.l.|.`.<...0.`.
     de3:	70 00 60 00 60 00 60 00 60 00 00 00 00 00 00 00     p.`.`.`.`.......
     df3:	3c 00 6c 00 6c 00 3c 00 0c 00 38 00 60 00 60 00     <.l.l.<...8.`.`.
     e03:	78 00 6c 00 6c 00 6c 00 6c 00 00 00 60 00 00 00     x.l.l.l.l...`...
     e13:	60 00 60 00 60 00 60 00 60 00 00 00 30 00 00 00     `.`.`.`.`...0...
     e23:	30 00 30 00 30 00 30 00 30 00 60 00 60 00 60 00     0.0.0.0.0.`.`.`.
     e33:	60 00 6c 00 78 00 78 00 6c 00 00 00 60 00 60 00     `.l.x.x.l...`.`.
     e43:	60 00 60 00 60 00 60 00 60 00 00 00 00 00 00 00     `.`.`.`.`.......
     e53:	7f 00 6d 80 6d 80 6d 80 6d 80 00 00 00 00 00 00     ..m.m.m.m.......
     e63:	78 00 6c 00 6c 00 6c 00 6c 00 00 00 00 00 00 00     x.l.l.l.l.......
     e73:	38 00 6c 00 6c 00 6c 00 38 00 00 00 00 00 00 00     8.l.l.l.8.......
     e83:	78 00 6c 00 6c 00 78 00 60 00 60 00 00 00 00 00     x.l.l.x.`.`.....
     e93:	3c 00 6c 00 6c 00 3c 00 0c 00 0c 00 00 00 00 00     <.l.l.<.........
     ea3:	68 00 78 00 60 00 60 00 60 00 00 00 00 00 00 00     h.x.`.`.`.......
     eb3:	38 00 60 00 30 00 18 00 70 00 00 00 60 00 60 00     8.`.0...p...`.`.
     ec3:	70 00 60 00 60 00 60 00 30 00 00 00 00 00 00 00     p.`.`.`.0.......
     ed3:	6c 00 6c 00 6c 00 6c 00 3c 00 00 00 00 00 00 00     l.l.l.l.<.......
     ee3:	6c 00 6c 00 38 00 38 00 10 00 00 00 00 00 00 00     l.l.8.8.........
     ef3:	63 00 6b 00 6b 00 3e 00 36 00 00 00 00 00 00 00     c.k.k.>.6.......
     f03:	6c 00 7c 00 38 00 7c 00 6c 00 00 00 00 00 00 00     l.|.8.|.l.......
     f13:	6c 00 6c 00 6c 00 3c 00 0c 00 38 00 00 00 00 00     l.l.l.<...8.....
     f23:	7c 00 0c 00 38 00 60 00 7c 00 00 00 38 00 20 00     |...8.`.|...8. .
     f33:	20 00 40 00 20 00 20 00 38 00 00 00 40 00 40 00      .@. . .8...@.@.
     f43:	40 00 40 00 40 00 40 00 40 00 40 00 70 00 10 00     @.@.@.@.@.@.p...
     f53:	10 00 08 00 10 00 10 00 70 00 00 00 28 00 50 00     ........p...(.P.
	...
     f6f:	38 00 6c 00 6c 00 38 00 00 00 00 00 00 00 00 00     8.l.l.8.........

00000f7f <seven_dot_width_table>:
     f7f:	05 04 06 07 07 08 09 03 05 05 07 07 04 07 04 05     ................
     f8f:	07 05 07 07 07 07 07 07 07 07 04 04 06 07 06 08     ................
     f9f:	08 08 08 07 08 07 07 08 08 04 07 08 07 09 08 08     ................
     faf:	08 08 08 06 08 08 08 09 08 08 07 05 07 05 07 08     ................
     fbf:	05 07 07 06 07 07 05 07 07 04 05 07 04 0a 07 07     ................
     fcf:	07 07 06 06 05 07 07 09 07 07 07 07 04 07 08 07     ................

00000fdf <nine_dot_glyph_table>:
	...
     feb:	00 18 3c 3c 3c 18 18 00 18 18 00 00 00 66 66 66     ..<<<........fff
	...
    1003:	00 36 36 7f 36 36 36 7f 36 36 00 00 08 3e 6b 68     .66.666.66...>kh
    1013:	68 3e 0b 0b 6b 3e 08 08 70 d8 da 76 0c 18 30 6e     h>..k>..p..v..0n
    1023:	5b 1b 0e 00 00 38 6c 6c 38 6c c7 c6 6e 3b 00 00     [....8ll8l..n;..
    1033:	00 18 18 18 00 00 00 00 00 00 00 00 00 0c 18 18     ................
    1043:	30 30 30 30 30 18 18 0c 00 30 18 18 0c 0c 0c 0c     00000....0......
    1053:	0c 18 18 30 00 00 00 36 1c 7f 1c 36 00 00 00 00     ...0...6...6....
    1063:	00 00 00 18 18 7e 18 18 00 00 00 00 00 00 00 00     .....~..........
    1073:	00 00 00 00 18 18 30 00 00 00 00 00 00 7e 00 00     ......0......~..
	...
    108f:	18 18 00 00 00 06 06 0c 0c 18 18 30 30 60 60 00     ...........00``.
    109f:	00 1c 36 63 6b 6b 6b 63 36 1c 00 00 00 0c 1c 3c     ..6ckkkc6......<
    10af:	0c 0c 0c 0c 0c 3f 00 00 00 3c 66 06 06 0c 18 30     .....?...<f....0
    10bf:	60 7e 00 00 00 3c 66 66 06 1c 06 66 66 3c 00 00     `~...<ff...ff<..
    10cf:	00 06 0e 1e 36 66 66 7f 06 06 00 00 00 7e 60 60     ....6ff......~``
    10df:	60 7c 06 06 66 3c 00 00 00 1c 30 60 60 7c 66 66     `|..f<....0``|ff
    10ef:	66 3c 00 00 00 7e 06 0c 0c 18 18 18 18 18 00 00     f<...~..........
    10ff:	00 3c 66 66 66 3c 66 66 66 3c 00 00 00 3c 66 66     .<fff<fff<...<ff
    110f:	66 3e 06 06 0c 38 00 00 00 00 00 18 18 00 00 00     f>...8..........
    111f:	18 18 00 00 00 00 00 18 18 00 00 00 18 18 30 00     ..............0.
    112f:	00 06 0c 18 30 60 30 18 0c 06 00 00 00 00 00 00     ....0`0.........
    113f:	7e 00 7e 00 00 00 00 00 00 60 30 18 0c 06 0c 18     ~.~......`0.....
    114f:	30 60 00 00 00 3c 66 66 0c 18 18 00 18 18 00 00     0`...<ff........
    115f:	00 7e c3 c3 cf db db cf c0 7f 00 00 00 18 3c 66     .~............<f
    116f:	66 66 7e 66 66 66 00 00 00 7c 66 66 66 7c 66 66     ff~fff...|fff|ff
    117f:	66 7c 00 00 00 3c 66 60 60 60 60 60 66 3c 00 00     f|...<f`````f<..
    118f:	00 78 6c 66 66 66 66 66 6c 78 00 00 00 7e 60 60     .xlffffflx...~``
    119f:	60 7c 60 60 60 7e 00 00 00 7e 60 60 60 7c 60 60     `|```~...~```|``
    11af:	60 60 00 00 00 3c 66 60 60 60 6e 66 66 3e 00 00     ``...<f```nff>..
    11bf:	00 66 66 66 66 7e 66 66 66 66 00 00 00 3c 18 18     .ffff~ffff...<..
    11cf:	18 18 18 18 18 3c 00 00 00 06 06 06 06 06 06 66     .....<.........f
    11df:	66 3c 00 00 00 66 66 6c 6c 78 6c 6c 66 66 00 00     f<...ffllxllff..
    11ef:	00 60 60 60 60 60 60 60 60 7e 00 00 00 63 77 7f     .````````~...cw.
    11ff:	6b 6b 63 63 63 63 00 00 00 63 63 73 7b 6f 67 63     kkcccc...ccs{ogc
    120f:	63 63 00 00 00 3c 66 66 66 66 66 66 66 3c 00 00     cc...<fffffff<..
    121f:	00 7c 66 66 66 7c 60 60 60 60 00 00 00 3c 66 66     .|fff|````...<ff
    122f:	66 66 66 66 66 3c 0c 06 00 7c 66 66 66 7c 6c 66     fffff<...|fff|lf
    123f:	66 66 00 00 00 3c 66 60 30 18 0c 06 66 3c 00 00     ff...<f`0...f<..
    124f:	00 7e 18 18 18 18 18 18 18 18 00 00 00 66 66 66     .~...........fff
    125f:	66 66 66 66 66 3c 00 00 00 66 66 66 66 66 66 66     fffff<...fffffff
    126f:	3c 18 00 00 00 63 63 63 63 6b 6b 6b 3e 36 00 00     <....cccckkk>6..
    127f:	00 66 66 66 3c 18 3c 66 66 66 00 00 00 66 66 66     .fff<.<fff...fff
    128f:	66 3c 18 18 18 18 00 00 00 7e 06 06 0c 18 30 60     f<.......~....0`
    129f:	60 7e 00 00 3c 30 30 30 30 30 30 30 30 30 30 3c     `~..<0000000000<
    12af:	00 60 60 30 30 18 18 0c 0c 06 06 00 3c 0c 0c 0c     .``00.......<...
    12bf:	0c 0c 0c 0c 0c 0c 0c 3c 18 3c 66 00 00 00 00 00     .......<.<f.....
	...
    12db:	00 00 00 ff 30 30 18 00 00 00 00 00 00 00 00 00     ....00..........
    12eb:	00 00 00 3c 06 06 3e 66 66 3e 00 00 00 60 60 7c     ...<..>ff>...``|
    12fb:	66 66 66 66 66 7c 00 00 00 00 00 3c 66 60 60 60     fffff|.....<f```
    130b:	66 3c 00 00 00 06 06 3e 66 66 66 66 66 3e 00 00     f<.....>fffff>..
    131b:	00 00 00 3c 66 66 7e 60 60 3c 00 00 00 1c 30 30     ...<ff~``<....00
    132b:	30 78 30 30 30 30 00 00 00 00 00 3e 66 66 66 66     0x0000.....>ffff
    133b:	66 3e 06 7c 00 60 60 7c 66 66 66 66 66 66 00 00     f>.|.``|ffffff..
    134b:	18 18 00 78 18 18 18 18 18 7e 00 00 0c 0c 00 3c     ...x.....~.....<
    135b:	0c 0c 0c 0c 0c 0c 0c 78 00 60 60 66 66 6c 78 6c     .......x.``fflxl
    136b:	66 66 00 00 00 78 18 18 18 18 18 18 18 7e 00 00     ff...x.......~..
    137b:	00 00 00 7e 6b 6b 6b 6b 6b 63 00 00 00 00 00 7c     ...~kkkkkc.....|
    138b:	66 66 66 66 66 66 00 00 00 00 00 3c 66 66 66 66     ffffff.....<ffff
    139b:	66 3c 00 00 00 00 00 7c 66 66 66 66 66 7c 60 60     f<.....|fffff|``
    13ab:	00 00 00 3e 66 66 66 66 66 3e 06 06 00 00 00 7c     ...>fffff>.....|
    13bb:	66 60 60 60 60 60 00 00 00 00 00 3e 60 60 3c 06     f`````.....>``<.
    13cb:	06 7c 00 00 00 30 30 78 30 30 30 30 30 1c 00 00     .|...00x00000...
    13db:	00 00 00 66 66 66 66 66 66 3e 00 00 00 00 00 66     ...ffffff>.....f
    13eb:	66 66 66 66 3c 18 00 00 00 00 00 63 63 63 6b 6b     ffff<......ccckk
    13fb:	3e 36 00 00 00 00 00 66 66 3c 18 3c 66 66 00 00     >6.....ff<.<ff..
    140b:	00 00 00 66 66 66 66 66 66 3e 06 7c 00 00 00 7e     ...ffffff>.|...~
    141b:	06 0c 18 30 60 7e 00 00 0c 18 18 18 18 30 18 18     ...0`~.......0..
    142b:	18 18 0c 00 18 18 18 18 18 00 18 18 18 18 18 00     ................
    143b:	30 18 18 18 18 0c 18 18 18 18 30 00 00 76 dc 00     0.........0..v..
	...

00001453 <fifteen_dot_glyph_table>:
	...
    1487:	00 00 30 00 00 30 00 00 30 00 00 30 00 00 30 00     ..0..0..0..0..0.
    1497:	00 30 00 00 30 00 00 30 00 00 30 00 00 30 00 00     .0..0..0..0..0..
    14a7:	30 00 00 00 00 00 00 00 00 30 00 00 30 00 00 00     0........0..0...
	...
    14bf:	6c 00 00 6c 00 00 6c 00 00 6c 00 00 00 00 00 00     l..l..l..l......
	...
    14f3:	00 00 04 40 00 04 40 00 04 40 00 04 40 00 7f f0     ...@..@..@..@...
    1503:	00 08 80 00 08 80 00 08 80 00 09 00 00 11 00 00     ................
    1513:	ff e0 00 11 00 00 12 00 00 22 00 00 22 00 00 00     .........".."...
	...
    152b:	02 00 00 0f c0 00 1a 60 00 32 20 00 32 00 00 3a     .......`.2 .2..:
    153b:	00 00 1e 00 00 07 00 00 03 c0 00 02 e0 00 02 60     ...............`
    154b:	00 02 60 00 22 60 00 32 c0 00 1f 80 00 02 00 00     ..`."`.2........
    155b:	00 00 00 00 00 00 78 10 00 cc 10 00 cc 20 00 cc     ......x...... ..
    156b:	40 00 cc 40 00 cc 80 00 79 00 00 02 00 00 02 f0     @..@....y.......
    157b:	00 05 98 00 09 98 00 11 98 00 11 98 00 21 98 00     .............!..
    158b:	40 f0 00 00 00 00 00 00 00 00 00 00 07 80 00 0c     @...............
    159b:	c0 00 0c c0 00 0c c0 00 0c c0 00 07 80 00 0e 00     ................
    15ab:	00 33 3c 00 63 08 00 61 88 00 61 d0 00 70 f0 00     .3<.c..a..a..p..
    15bb:	78 60 00 3f f0 00 0f 38 00 00 00 00 00 00 00 00     x`.?...8........
    15cb:	00 00 60 00 00 60 00 00 60 00 00 60 00 00 60 00     ..`..`..`..`..`.
	...
    1603:	04 00 00 08 00 00 18 00 00 30 00 00 30 00 00 20     .........0..0.. 
    1613:	00 00 60 00 00 60 00 00 60 00 00 60 00 00 60 00     ..`..`..`..`..`.
    1623:	00 60 00 00 20 00 00 30 00 00 30 00 00 18 00 00     .`.. ..0..0.....
    1633:	08 00 00 04 00 00 40 00 00 20 00 00 30 00 00 18     ......@.. ..0...
    1643:	00 00 18 00 00 08 00 00 0c 00 00 0c 00 00 0c 00     ................
    1653:	00 0c 00 00 0c 00 00 0c 00 00 08 00 00 18 00 00     ................
    1663:	18 00 00 30 00 00 20 00 00 40 00 00 0c 00 00 0c     ...0.. ..@......
    1673:	00 00 4c 80 00 73 80 00 12 00 00 1e 00 00 33 00     ..L..s........3.
    1683:	00 33 00 00 00 00 00 00 00 00 00 00 00 00 00 00     .3..............
	...
    16ab:	00 00 00 06 00 00 06 00 00 06 00 00 06 00 00 06     ................
    16bb:	00 00 7f e0 00 7f e0 00 06 00 00 06 00 00 06 00     ................
    16cb:	00 06 00 00 06 00 00 00 00 00 00 00 00 00 00 00     ................
	...
    16ff:	00 00 00 30 00 00 30 00 00 10 00 00 10 00 00 20     ...0..0........ 
	...
    1727:	00 00 7c 00 00 7c 00 00 00 00 00 00 00 00 00 00     ..|..|..........
	...
    176b:	00 00 00 30 00 00 30 00 00 00 00 00 00 00 00 00     ...0..0.........
    177b:	00 00 00 c0 00 00 c0 00 01 80 00 01 80 00 03 80     ................
    178b:	00 03 00 00 03 00 00 06 00 00 06 00 00 0c 00 00     ................
    179b:	0c 00 00 18 00 00 18 00 00 38 00 00 30 00 00 30     .........8..0..0
    17ab:	00 00 60 00 00 60 00 00 0f 00 00 19 80 00 30 c0     ..`..`........0.
    17bb:	00 20 40 00 60 60 00 60 60 00 60 60 00 60 60 00     . @.``.``.``.``.
    17cb:	60 60 00 60 60 00 60 60 00 20 40 00 30 c0 00 19     ``.``.``. @.0...
    17db:	80 00 0f 00 00 00 00 00 00 00 00 00 00 00 02 00     ................
    17eb:	00 1e 00 00 06 00 00 06 00 00 06 00 00 06 00 00     ................
    17fb:	06 00 00 06 00 00 06 00 00 06 00 00 06 00 00 06     ................
    180b:	00 00 06 00 00 06 00 00 1f 80 00 00 00 00 00 00     ................
    181b:	00 00 00 00 1f 80 00 30 c0 00 20 60 00 00 60 00     .......0.. `..`.
    182b:	00 60 00 00 60 00 00 c0 00 01 80 00 03 00 00 06     .`..`...........
    183b:	00 00 08 00 00 18 00 00 10 00 00 3f e0 00 3f e0     ...........?..?.
	...
    1853:	00 00 1f 80 00 20 c0 00 20 60 00 00 60 00 00 60     ..... .. `..`..`
    1863:	00 00 c0 00 01 80 00 1f 00 00 01 c0 00 00 60 00     ..............`.
    1873:	00 60 00 00 60 00 20 60 00 30 c0 00 1f 80 00 00     .`..`. `.0......
	...
    188b:	00 40 00 00 c0 00 01 c0 00 02 c0 00 04 c0 00 08     .@..............
    189b:	c0 00 10 c0 00 10 c0 00 20 c0 00 7f f0 00 7f f0     ........ .......
    18ab:	00 00 c0 00 00 c0 00 00 c0 00 01 e0 00 00 00 00     ................
    18bb:	00 00 00 00 00 00 1f c0 00 1f c0 00 10 00 00 10     ................
    18cb:	00 00 10 00 00 10 00 00 1f 00 00 01 c0 00 00 c0     ................
    18db:	00 00 60 00 00 60 00 00 60 00 10 e0 00 10 c0 00     ..`..`..`.......
    18eb:	0f 80 00 00 00 00 00 00 00 00 00 00 0f 80 00 18     ................
    18fb:	40 00 30 40 00 30 00 00 60 00 00 6f 80 00 70 c0     @.0@.0..`..o..p.
    190b:	00 60 e0 00 60 60 00 60 60 00 60 60 00 20 60 00     .`..``.``.``. `.
    191b:	30 40 00 18 c0 00 0f 00 00 00 00 00 00 00 00 00     0@..............
    192b:	00 00 3f e0 00 3f e0 00 00 40 00 00 c0 00 00 80     ..?..?...@......
    193b:	00 01 00 00 01 00 00 02 00 00 06 00 00 04 00 00     ................
    194b:	0c 00 00 0c 00 00 08 00 00 18 00 00 18 00 00 00     ................
	...
    1963:	0f 80 00 18 c0 00 30 60 00 30 60 00 30 60 00 1c     ......0`.0`.0`..
    1973:	c0 00 0f 00 00 1f 80 00 31 c0 00 60 e0 00 60 60     ........1..`..``
    1983:	00 60 60 00 60 60 00 30 c0 00 1f 80 00 00 00 00     .``.``.0........
    1993:	00 00 00 00 00 00 0f 00 00 31 c0 00 20 c0 00 60     .........1.. ..`
    19a3:	60 00 60 60 00 60 60 00 60 60 00 30 60 00 30 e0     `.``.``.``.0`.0.
    19b3:	00 1f 60 00 00 40 00 00 c0 00 00 c0 00 21 80 00     ..`..@.......!..
    19c3:	3e 00 00 00 00 00 00 00 00 00 00 00 00 00 00 00     >...............
	...
    19db:	30 00 00 30 00 00 00 00 00 00 00 00 00 00 00 00     0..0............
	...
    19f3:	00 00 00 30 00 00 30 00 00 00 00 00 00 00 00 00     ...0..0.........
	...
    1a0f:	00 00 30 00 00 30 00 00 00 00 00 00 00 00 00 00     ..0..0..........
	...
    1a2b:	00 30 00 00 30 00 00 10 00 00 10 00 00 20 00 00     .0..0........ ..
	...
    1a47:	00 10 00 00 70 00 01 e0 00 07 80 00 1e 00 00 78     ....p..........x
    1a57:	00 00 1e 00 00 07 80 00 01 e0 00 00 70 00 00 10     ............p...
	...
    1a83:	7f f0 00 7f f0 00 00 00 00 00 00 00 7f f0 00 7f     ................
    1a93:	f0 00 00 00 00 00 00 00 00 00 00 00 00 00 00 00     ................
	...
    1ab3:	40 00 00 70 00 00 3c 00 00 0f 00 00 03 c0 00 00     @..p..<.........
    1ac3:	f0 00 03 e0 00 0f 80 00 3e 00 00 70 00 00 40 00     ........>..p..@.
	...
    1adb:	00 00 3e 00 00 63 00 00 41 80 00 01 80 00 01 80     ..>..c..A.......
    1aeb:	00 03 00 00 02 00 00 0c 00 00 08 00 00 18 00 00     ................
    1afb:	18 00 00 00 00 00 00 00 00 18 00 00 18 00 00 00     ................
	...
    1b13:	01 f8 00 06 06 00 0c 03 00 10 f9 00 31 98 80 23     ............1..#
    1b23:	18 80 42 18 80 46 30 80 46 30 80 46 71 00 46 b2     ..B..F0.F0.Fq.F.
    1b33:	00 23 3c 00 20 00 00 18 20 00 07 c0 00 00 00 00     .#<. ... .......
    1b43:	00 00 00 00 00 00 03 00 00 03 00 00 03 80 00 05     ................
    1b53:	80 00 05 80 00 08 c0 00 08 c0 00 10 e0 00 10 60     ...............`
    1b63:	00 10 60 00 3f f0 00 20 30 00 40 18 00 40 18 00     ..`.?.. 0.@..@..
    1b73:	e0 3c 00 00 00 00 00 00 00 00 00 00 7f 00 00 31     .<.............1
    1b83:	c0 00 30 c0 00 30 c0 00 30 c0 00 30 80 00 31 80     ..0..0..0..0..1.
    1b93:	00 3e 00 00 31 c0 00 30 c0 00 30 60 00 30 60 00     .>..1..0..0`.0`.
    1ba3:	30 60 00 30 c0 00 7f 80 00 00 00 00 00 00 00 00     0`.0............
    1bb3:	00 00 07 f0 00 1c 18 00 38 08 00 30 00 00 70 00     ........8..0..p.
    1bc3:	00 60 00 00 60 00 00 60 00 00 60 00 00 60 00 00     .`..`..`..`..`..
    1bd3:	70 00 00 30 00 00 18 00 00 0c 08 00 07 f0 00 00     p..0............
	...
    1beb:	7f c0 00 30 70 00 30 38 00 30 18 00 30 0c 00 30     ...0p.08.0..0..0
    1bfb:	0c 00 30 0c 00 30 0c 00 30 0c 00 30 0c 00 30 1c     ..0..0..0..0..0.
    1c0b:	00 30 18 00 30 38 00 30 70 00 7f c0 00 00 00 00     .0..08.0p.......
    1c1b:	00 00 00 00 00 00 7f c0 00 30 40 00 30 00 00 30     .........0@.0..0
    1c2b:	00 00 30 00 00 30 00 00 31 00 00 3f 00 00 31 00     ..0..0..1..?..1.
    1c3b:	00 30 00 00 30 00 00 30 00 00 30 40 00 30 40 00     .0..0..0..0@.0@.
    1c4b:	7f c0 00 00 00 00 00 00 00 00 00 00 7f c0 00 30     ...............0
    1c5b:	40 00 30 00 00 30 00 00 30 00 00 30 00 00 30 80     @.0..0..0..0..0.
    1c6b:	00 3f 80 00 30 80 00 30 00 00 30 00 00 30 00 00     .?..0..0..0..0..
    1c7b:	30 00 00 30 00 00 78 00 00 00 00 00 00 00 00 00     0..0..x.........
    1c8b:	00 00 07 f0 00 1c 18 00 38 08 00 30 00 00 70 00     ........8..0..p.
    1c9b:	00 60 00 00 60 00 00 60 00 00 60 7c 00 60 18 00     .`..`..`..`|.`..
    1cab:	70 18 00 30 18 00 18 18 00 0c 18 00 07 f0 00 00     p..0............
	...
    1cc3:	78 3c 00 30 18 00 30 18 00 30 18 00 30 18 00 30     x<.0..0..0..0..0
    1cd3:	18 00 30 18 00 3f f8 00 30 18 00 30 18 00 30 18     ..0..?..0..0..0.
    1ce3:	00 30 18 00 30 18 00 30 18 00 78 3c 00 00 00 00     .0..0..0..x<....
    1cf3:	00 00 00 00 00 00 78 00 00 30 00 00 30 00 00 30     ......x..0..0..0
    1d03:	00 00 30 00 00 30 00 00 30 00 00 30 00 00 30 00     ..0..0..0..0..0.
    1d13:	00 30 00 00 30 00 00 30 00 00 30 00 00 30 00 00     .0..0..0..0..0..
    1d23:	78 00 00 00 00 00 00 00 00 00 00 00 3e 00 00 0c     x...........>...
    1d33:	00 00 0c 00 00 0c 00 00 0c 00 00 0c 00 00 0c 00     ................
    1d43:	00 0c 00 00 0c 00 00 0c 00 00 0c 00 00 0c 00 00     ................
    1d53:	0c 00 00 0c 00 00 0c 00 00 8c 00 00 98 00 00 f0     ................
    1d63:	00 00 78 f0 00 30 40 00 30 80 00 30 80 00 31 00     ..x..0@.0..0..1.
    1d73:	00 32 00 00 34 00 00 3c 00 00 36 00 00 33 00 00     .2..4..<..6..3..
    1d83:	31 80 00 30 c0 00 30 60 00 30 30 00 78 f8 00 00     1..0..0`.00.x...
	...
    1d9b:	78 00 00 30 00 00 30 00 00 30 00 00 30 00 00 30     x..0..0..0..0..0
    1dab:	00 00 30 00 00 30 00 00 30 00 00 30 00 00 30 00     ..0..0..0..0..0.
    1dbb:	00 30 00 00 30 40 00 30 40 00 7f c0 00 00 00 00     .0..0@.0@.......
    1dcb:	00 00 00 00 00 00 70 07 00 30 06 00 38 0e 00 38     ......p..0..8..8
    1ddb:	0e 00 3c 16 00 2c 16 00 2c 36 00 26 26 00 26 26     ..<..,..,6.&&.&&
    1deb:	00 23 46 00 23 46 00 23 86 00 21 86 00 21 86 00     .#F.#F.#..!..!..
    1dfb:	70 0f 00 00 00 00 00 00 00 00 00 00 70 1c 00 30     p...........p..0
    1e0b:	08 00 38 08 00 2c 08 00 2e 08 00 26 08 00 23 08     ..8..,.....&..#.
    1e1b:	00 21 88 00 21 88 00 20 c8 00 20 68 00 20 78 00     .!..!.. .. h. x.
    1e2b:	20 38 00 20 18 00 70 08 00 00 00 00 00 00 00 00      8. ..p.........
    1e3b:	00 00 07 c0 00 1c 70 00 30 18 00 30 18 00 60 0c     ......p.0..0..`.
    1e4b:	00 60 0c 00 60 0c 00 60 0c 00 60 0c 00 60 0c 00     .`..`..`..`..`..
    1e5b:	60 0c 00 30 18 00 30 18 00 1c 70 00 07 c0 00 00     `..0..0...p.....
	...
    1e73:	7f 80 00 30 c0 00 30 60 00 30 60 00 30 60 00 30     ...0..0`.0`.0`.0
    1e83:	60 00 30 c0 00 31 c0 00 3f 00 00 30 00 00 30 00     `.0..1..?..0..0.
    1e93:	00 30 00 00 30 00 00 30 00 00 78 00 00 00 00 00     .0..0..0..x.....
    1ea3:	00 00 00 00 00 00 07 c0 00 1c 70 00 30 18 00 30     ..........p.0..0
    1eb3:	18 00 60 0c 00 60 0c 00 60 0c 00 60 0c 00 60 0c     ..`..`..`..`..`.
    1ec3:	00 60 0c 00 60 0c 00 30 18 00 30 18 00 1c 70 00     .`..`..0..0...p.
    1ed3:	07 c0 00 00 30 00 00 1f 00 00 07 00 7f 80 00 30     ....0..........0
    1ee3:	c0 00 30 60 00 30 60 00 30 60 00 30 60 00 31 c0     ..0`.0`.0`.0`.1.
    1ef3:	00 3f 00 00 33 00 00 31 80 00 31 c0 00 30 c0 00     .?..3..1..1..0..
    1f03:	30 60 00 30 70 00 78 38 00 00 00 00 00 00 00 00     0`.0p.x8........
    1f13:	00 00 1f 80 00 30 c0 00 60 40 00 60 00 00 60 00     .....0..`@.`..`.
    1f23:	00 70 00 00 3c 00 00 0f 00 00 03 80 00 01 c0 00     .p..<...........
    1f33:	00 c0 00 00 c0 00 40 c0 00 61 80 00 3f 00 00 00     ......@..a..?...
	...
    1f4b:	7f f8 00 43 08 00 43 08 00 03 00 00 03 00 00 03     ...C..C.........
    1f5b:	00 00 03 00 00 03 00 00 03 00 00 03 00 00 03 00     ................
    1f6b:	00 03 00 00 03 00 00 03 00 00 07 80 00 00 00 00     ................
    1f7b:	00 00 00 00 00 00 78 38 00 30 10 00 30 10 00 30     ......x8.0..0..0
    1f8b:	10 00 30 10 00 30 10 00 30 10 00 30 10 00 30 10     ..0..0..0..0..0.
    1f9b:	00 30 10 00 30 10 00 30 10 00 18 20 00 1c 60 00     .0..0..0... ..`.
    1fab:	0f c0 00 00 00 00 00 00 00 00 00 00 78 1c 00 30     ............x..0
    1fbb:	08 00 30 08 00 18 10 00 18 10 00 18 10 00 0c 20     ..0............ 
    1fcb:	00 0c 20 00 06 40 00 06 40 00 06 40 00 03 80 00     .. ..@..@..@....
    1fdb:	03 80 00 03 80 00 01 00 00 00 00 00 00 00 00 00     ................
    1feb:	00 00 78 61 c0 30 60 80 30 60 80 30 e0 80 38 b1     ..xa.0`.0`.0..8.
    1ffb:	00 18 b1 00 19 31 00 19 39 00 19 1a 00 0d 1a 00     .....1..9.......
    200b:	0e 1a 00 0e 0e 00 0e 0c 00 04 0c 00 04 04 00 00     ................
	...
    2023:	f8 70 00 60 20 00 30 40 00 38 80 00 18 80 00 0d     .p.` .0@.8......
    2033:	00 00 0e 00 00 06 00 00 07 00 00 0b 00 00 11 80     ................
    2043:	00 11 c0 00 20 c0 00 40 60 00 e1 f0 00 00 00 00     .... ..@`.......
    2053:	00 00 00 00 00 00 f0 70 00 60 20 00 30 40 00 38     .......p.` .0@.8
    2063:	40 00 18 80 00 1c 80 00 0d 00 00 06 00 00 06 00     @...............
    2073:	00 06 00 00 06 00 00 06 00 00 06 00 00 06 00 00     ................
    2083:	0f 00 00 00 00 00 00 00 00 00 00 00 7f e0 00 40     ...............@
    2093:	e0 00 00 c0 00 01 c0 00 01 80 00 03 00 00 03 00     ................
    20a3:	00 06 00 00 0e 00 00 0c 00 00 18 00 00 18 00 00     ................
    20b3:	30 00 00 70 20 00 7f e0 00 00 00 00 00 00 00 00     0..p ...........
    20c3:	00 00 3c 00 00 30 00 00 30 00 00 30 00 00 30 00     ..<..0..0..0..0.
    20d3:	00 30 00 00 30 00 00 30 00 00 30 00 00 30 00 00     .0..0..0..0..0..
    20e3:	30 00 00 30 00 00 30 00 00 30 00 00 30 00 00 30     0..0..0..0..0..0
    20f3:	00 00 30 00 00 3c 00 00 60 00 00 60 00 00 30 00     ..0..<..`..`..0.
    2103:	00 30 00 00 38 00 00 18 00 00 18 00 00 0c 00 00     .0..8...........
    2113:	0c 00 00 06 00 00 06 00 00 03 00 00 03 00 00 03     ................
    2123:	80 00 01 80 00 01 80 00 00 c0 00 00 c0 00 78 00     ..............x.
    2133:	00 18 00 00 18 00 00 18 00 00 18 00 00 18 00 00     ................
    2143:	18 00 00 18 00 00 18 00 00 18 00 00 18 00 00 18     ................
    2153:	00 00 18 00 00 18 00 00 18 00 00 18 00 00 18 00     ................
    2163:	00 78 00 00 03 00 00 03 00 00 07 80 00 07 80 00     .x..............
    2173:	0c c0 00 0c c0 00 18 60 00 18 60 00 30 30 00 30     .......`..`.00.0
    2183:	30 00 00 00 00 00 00 00 00 00 00 00 00 00 00 00     0...............
	...
    21c7:	00 00 00 7f 80 00 00 00 00 00 00 00 06 00 00 03     ................
    21d7:	00 00 01 80 00 00 00 00 00 00 00 00 00 00 00 00     ................
	...
    2213:	00 00 1f 00 00 23 80 00 21 80 00 01 80 00 01 80     .....#..!.......
    2223:	00 1f 80 00 31 80 00 61 80 00 61 80 00 73 80 00     ....1..a..a..s..
    2233:	3c e0 00 00 00 00 00 00 00 00 00 00 70 00 00 30     <...........p..0
    2243:	00 00 30 00 00 30 00 00 37 c0 00 38 60 00 30 30     ..0..0..7..8`.00
    2253:	00 30 30 00 30 30 00 30 30 00 30 30 00 30 30 00     .00.00.00.00.00.
    2263:	30 60 00 38 60 00 37 80 00 00 00 00 00 00 00 00     0`.8`.7.........
	...
    227f:	00 00 0f 00 00 38 80 00 30 80 00 60 00 00 60 00     .....8..0..`..`.
    228f:	00 60 00 00 60 00 00 60 00 00 30 00 00 38 80 00     .`..`..`..0..8..
    229f:	0f 00 00 00 00 00 00 00 00 00 00 00 00 e0 00 00     ................
    22af:	60 00 00 60 00 00 60 00 0f 60 00 30 e0 00 30 60     `..`..`..`.0..0`
    22bf:	00 60 60 00 60 60 00 60 60 00 60 60 00 60 60 00     .``.``.``.``.``.
    22cf:	60 60 00 30 e0 00 1f 70 00 00 00 00 00 00 00 00     ``.0...p........
	...
    22eb:	00 00 0f 00 00 31 80 00 20 c0 00 60 c0 00 7f c0     .....1.. ..`....
    22fb:	00 60 00 00 60 00 00 60 00 00 30 00 00 18 40 00     .`..`..`..0...@.
    230b:	0f 80 00 00 00 00 00 00 00 00 00 00 0f 00 00 19     ................
    231b:	00 00 18 00 00 18 00 00 7f 00 00 18 00 00 18 00     ................
    232b:	00 18 00 00 18 00 00 18 00 00 18 00 00 18 00 00     ................
    233b:	18 00 00 18 00 00 3c 00 00 00 00 00 00 00 00 00     ......<.........
	...
    2357:	00 00 0f f0 00 19 80 00 30 c0 00 30 c0 00 30 c0     ........0..0..0.
    2367:	00 19 80 00 0f 00 00 10 00 00 30 00 00 3f c0 00     ..........0..?..
    2377:	1f e0 00 20 60 00 60 c0 00 3f 80 00 70 00 00 30     ... `.`..?..p..0
    2387:	00 00 30 00 00 30 00 00 37 c0 00 38 60 00 30 60     ..0..0..7..8`.0`
    2397:	00 30 60 00 30 60 00 30 60 00 30 60 00 30 60 00     .0`.0`.0`.0`.0`.
    23a7:	30 60 00 30 60 00 78 f0 00 00 00 00 00 00 00 00     0`.0`.x.........
    23b7:	00 00 30 00 00 30 00 00 00 00 00 00 00 00 70 00     ..0..0........p.
    23c7:	00 30 00 00 30 00 00 30 00 00 30 00 00 30 00 00     .0..0..0..0..0..
    23d7:	30 00 00 30 00 00 30 00 00 30 00 00 78 00 00 00     0..0..0..0..x...
	...
    23ef:	18 00 00 18 00 00 00 00 00 00 00 00 38 00 00 18     ............8...
    23ff:	00 00 18 00 00 18 00 00 18 00 00 18 00 00 18 00     ................
    240f:	00 18 00 00 18 00 00 18 00 00 18 00 00 18 00 00     ................
    241f:	10 00 00 e0 00 00 70 00 00 30 00 00 30 00 00 30     ......p..0..0..0
    242f:	00 00 30 e0 00 30 80 00 31 00 00 32 00 00 34 00     ..0..0..1..2..4.
    243f:	00 3e 00 00 36 00 00 33 00 00 31 80 00 30 c0 00     .>..6..3..1..0..
    244f:	78 70 00 00 00 00 00 00 00 00 00 00 70 00 00 30     xp..........p..0
    245f:	00 00 30 00 00 30 00 00 30 00 00 30 00 00 30 00     ..0..0..0..0..0.
    246f:	00 30 00 00 30 00 00 30 00 00 30 00 00 30 00 00     .0..0..0..0..0..
    247f:	30 00 00 30 00 00 78 00 00 00 00 00 00 00 00 00     0..0..x.........
	...
    249b:	00 00 77 cf 80 38 70 c0 30 60 c0 30 60 c0 30 60     ..w..8p.0`.0`.0`
    24ab:	c0 30 60 c0 30 60 c0 30 60 c0 30 60 c0 30 60 c0     .0`.0`.0`.0`.0`.
    24bb:	78 f1 e0 00 00 00 00 00 00 00 00 00 00 00 00 00     x...............
	...
    24d3:	77 c0 00 38 60 00 30 60 00 30 60 00 30 60 00 30     w..8`.0`.0`.0`.0
    24e3:	60 00 30 60 00 30 60 00 30 60 00 30 60 00 78 f0     `.0`.0`.0`.0`.x.
	...
    2507:	00 00 0f 00 00 39 c0 00 30 c0 00 60 60 00 60 60     .....9..0..``.``
    2517:	00 60 60 00 60 60 00 60 60 00 30 c0 00 39 c0 00     .``.``.``.0..9..
    2527:	0f 00 00 00 00 00 00 00 00 00 00 00 00 00 00 00     ................
	...
    253f:	77 c0 00 38 60 00 30 30 00 30 30 00 30 30 00 30     w..8`.00.00.00.0
    254f:	30 00 30 30 00 30 60 00 38 60 00 37 80 00 30 00     0.00.0`.8`.7..0.
    255f:	00 30 00 00 30 00 00 78 00 00 00 00 00 00 00 00     .0..0..x........
    256f:	00 00 00 00 00 00 0f 60 00 30 e0 00 30 60 00 60     .......`.0..0`.`
    257f:	60 00 60 60 00 60 60 00 60 60 00 60 60 00 30 e0     `.``.``.``.``.0.
    258f:	00 1f 60 00 00 60 00 00 60 00 00 60 00 00 f0 00     ..`..`..`..`....
	...
    25ab:	73 00 00 37 00 00 39 00 00 30 00 00 30 00 00 30     s..7..9..0..0..0
    25bb:	00 00 30 00 00 30 00 00 30 00 00 30 00 00 78 00     ..0..0..0..0..x.
	...
    25df:	00 00 0f 00 00 30 80 00 30 80 00 30 00 00 1c 00     .....0..0..0....
    25ef:	00 0f 00 00 03 c0 00 00 c0 00 20 c0 00 31 80 00     .......... ..1..
    25ff:	1f 00 00 00 00 00 00 00 00 00 00 00 00 00 00 00     ................
    260f:	00 00 30 00 00 30 00 00 7e 00 00 30 00 00 30 00     ..0..0..~..0..0.
    261f:	00 30 00 00 30 00 00 30 00 00 30 00 00 30 00 00     .0..0..0..0..0..
    262f:	30 00 00 30 00 00 1e 00 00 00 00 00 00 00 00 00     0..0............
	...
    264b:	00 00 70 e0 00 30 60 00 30 60 00 30 60 00 30 60     ..p..0`.0`.0`.0`
    265b:	00 30 60 00 30 60 00 30 60 00 30 60 00 30 e0 00     .0`.0`.0`.0`.0..
    266b:	1f 70 00 00 00 00 00 00 00 00 00 00 00 00 00 00     .p..............
	...
    2683:	78 70 00 30 20 00 30 20 00 18 40 00 18 40 00 1c     xp.0 .0 ..@..@..
    2693:	80 00 0c 80 00 0d 00 00 07 00 00 06 00 00 02 00     ................
	...
    26b7:	00 00 78 c7 00 30 c2 00 30 c2 00 31 62 00 39 62     ..x..0..0..1b.9b
    26c7:	00 1b 74 00 1a 34 00 1a 34 00 0c 18 00 0c 18 00     ..t..4..4.......
    26d7:	0c 18 00 00 00 00 00 00 00 00 00 00 00 00 00 00     ................
	...
    26ef:	78 e0 00 30 40 00 18 80 00 1d 00 00 0e 00 00 06     x..0@...........
    26ff:	00 00 07 00 00 0b 80 00 11 80 00 20 c0 00 71 e0     ........... ..q.
	...
    2723:	00 00 78 70 00 30 20 00 30 20 00 18 40 00 18 40     ..xp.0 .0 ..@..@
    2733:	00 1c 80 00 0c 80 00 0d 00 00 07 00 00 06 00 00     ................
    2743:	02 00 00 04 00 00 0c 00 00 18 00 00 00 00 00 00     ................
	...
    275b:	3f e0 00 20 e0 00 00 c0 00 01 80 00 03 00 00 07     ?.. ............
    276b:	00 00 06 00 00 0c 00 00 18 00 00 38 20 00 3f e0     ...........8 .?.
	...
    2783:	00 00 0c 00 00 10 00 00 30 00 00 30 00 00 30 00     ........0..0..0.
    2793:	00 30 00 00 30 00 00 20 00 00 40 00 00 20 00 00     .0..0.. ..@.. ..
    27a3:	30 00 00 30 00 00 30 00 00 30 00 00 30 00 00 10     0..0..0..0..0...
    27b3:	00 00 0c 00 00 00 00 00 30 00 00 30 00 00 30 00     ........0..0..0.
    27c3:	00 30 00 00 30 00 00 30 00 00 30 00 00 30 00 00     .0..0..0..0..0..
    27d3:	30 00 00 30 00 00 30 00 00 30 00 00 30 00 00 30     0..0..0..0..0..0
    27e3:	00 00 30 00 00 30 00 00 30 00 00 30 00 00 60 00     ..0..0..0..0..`.
    27f3:	00 10 00 00 18 00 00 18 00 00 18 00 00 18 00 00     ................
    2803:	18 00 00 08 00 00 04 00 00 08 00 00 18 00 00 18     ................
    2813:	00 00 18 00 00 18 00 00 18 00 00 10 00 00 60 00     ..............`.
	...
    283b:	00 3e 10 00 7f f0 00 03 e0 00 00 00 00 00 00 00     .>..............
	...

0000285d <fifteen_dot_width_table>:
    285d:	06 06 08 0d 0d 0e 0e 05 07 07 0a 0d 06 07 06 0b     ................
    286d:	0d 0d 0d 0d 0d 0d 0d 0d 0d 0d 06 06 0d 0d 0d 0a     ................
    287d:	12 0e 0c 0e 10 0c 0b 0f 10 07 09 0e 0b 11 0f 10     ................
    288d:	0c 10 0e 0b 0e 0f 0e 12 0d 0c 0d 07 0b 07 0d 0a     ................
    289d:	0d 0b 0d 0b 0d 0b 08 0c 0d 07 07 0c 07 13 0d 0d     ................
    28ad:	0d 0d 09 0b 08 0d 0c 11 0c 0c 0c 07 05 07 0d        ...............

000028bc <eighteen_dot_glyph_table>:
	...
    28f0:	00 00 3f 00 00 3f 00 00 3f 00 00 3f 00 00 3f 00     ..?..?..?..?..?.
    2900:	00 3f 00 00 1e 00 00 1e 00 00 1e 00 00 1e 00 00     .?..............
    2910:	1e 00 00 1e 00 00 00 00 00 1c 00 00 3e 00 00 3e     ............>..>
    2920:	00 00 3e 00 00 1c 00 00 73 80 00 73 80 00 73 80     ..>.....s..s..s.
    2930:	00 73 80 00 73 80 00 73 80 00 73 80 00 00 00 00     .s..s..s..s.....
	...
    295c:	00 00 00 38 e0 00 70 e0 00 71 c0 00 71 c0 00 e3     ...8..p..q..q...
    296c:	80 0f ff f8 1f ff f8 1f ff f0 01 c7 00 03 87 00     ................
    297c:	03 8e 00 3f ff e0 3f ff e0 7f ff c0 07 1c 00 0e     ...?..?.........
    298c:	1c 00 0e 38 00 1c 38 00 01 80 00 01 80 00 0f e0     ...8..8.........
    299c:	00 1f f0 00 3d 90 00 3d 80 00 3f 80 00 1f e0 00     ....=..=..?.....
    29ac:	0f f0 00 03 f8 00 01 bc 00 01 bc 00 21 bc 00 31     ............!..1
    29bc:	fc 00 3f f8 00 1f 80 00 01 e0 00 01 80 00 1f 01     ..?.............
    29cc:	c0 3f 81 80 71 c3 00 71 c7 00 71 c6 00 71 cc 00     .?..q..q..q..q..
    29dc:	71 dc 00 3f 98 00 1f 30 00 00 33 e0 00 67 f0 00     q..?...0..3..g..
    29ec:	ce 38 00 ce 38 01 8e 38 03 8e 38 03 0e 38 06 07     .8..8..8..8..8..
    29fc:	f0 0e 03 e0 07 e0 00 0f f0 00 1f f8 00 1f 38 00     ..............8.
    2a0c:	1f 38 00 1f f8 00 0f f0 00 07 e0 00 0f f0 00 1f     .8..............
    2a1c:	f8 00 3e fc 00 7c 7f 00 7c 3f 80 7c 1f c0 7e 1f     ..>..|..|?.|..~.
    2a2c:	e0 3f ff f8 1f f3 f8 0f e0 f8 70 00 00 70 00 00     .?........p..p..
    2a3c:	70 00 00 70 00 00 70 00 00 70 00 00 70 00 00 00     p..p..p..p..p...
	...
    2a6c:	01 80 00 03 80 00 07 00 00 07 00 00 0e 00 00 0e     ................
    2a7c:	00 00 1e 00 00 1e 00 00 1e 00 00 1e 00 00 1e 00     ................
    2a8c:	00 1e 00 00 0e 00 00 0e 00 00 07 00 00 07 00 00     ................
    2a9c:	03 80 00 01 80 00 30 00 00 38 00 00 1c 00 00 1c     ......0..8......
    2aac:	00 00 0e 00 00 0e 00 00 0f 00 00 0f 00 00 0f 00     ................
    2abc:	00 0f 00 00 0f 00 00 0f 00 00 0e 00 00 0e 00 00     ................
    2acc:	1c 00 00 1c 00 00 38 00 00 30 00 00 03 c0 00 09     ......8..0......
    2adc:	a0 00 0d b0 00 1f 78 00 03 c0 00 03 c0 00 1f 78     ......x........x
    2aec:	00 0d b0 00 09 a0 00 03 c0 00 00 00 00 00 00 00     ................
	...
    2b0c:	00 00 00 38 00 00 38 00 00 38 00 00 38 00 00 38     ...8..8..8..8..8
    2b1c:	00 00 38 00 00 38 00 1f ff f0 1f ff f0 1f ff f0     ..8..8..........
    2b2c:	00 38 00 00 38 00 00 38 00 00 38 00 00 38 00 00     .8..8..8..8..8..
    2b3c:	38 00 00 38 00 00 00 00 00 00 00 00 00 00 00 00     8..8............
	...
    2b60:	00 00 38 00 00 7c 00 00 7c 00 00 7c 00 00 3c 00     ..8..|..|..|..<.
    2b70:	00 18 00 00 30 00 00 60 00 00 00 00 00 00 00 00     ....0..`........
	...
    2b90:	00 00 1f c0 00 3f 80 00 7f 00 00 00 00 00 00 00     .....?..........
	...
    2bd4:	00 00 00 38 00 00 7c 00 00 7c 00 00 7c 00 00 38     ...8..|..|..|..8
    2be4:	00 00 06 00 00 06 00 00 0e 00 00 0c 00 00 0c 00     ................
    2bf4:	00 1c 00 00 18 00 00 18 00 00 38 00 00 30 00 00     ..........8..0..
    2c04:	30 00 00 70 00 00 60 00 00 60 00 00 e0 00 00 c0     0..p..`..`......
    2c14:	00 00 c0 00 00 c0 00 00 03 e0 00 0f f8 00 1f fc     ................
    2c24:	00 3e 3e 00 3e 3e 00 3c 1e 00 7c 1f 00 7c 1f 00     .>>.>>.<..|..|..
    2c34:	7c 1f 00 7c 1f 00 7c 1f 00 7c 1f 00 3c 1f 00 3e     |..|..|..|..<..>
    2c44:	3e 00 3e 3e 00 1f fc 00 0f f8 00 03 e0 00 00 20     >.>>........... 
    2c54:	00 00 60 00 00 e0 00 07 e0 00 1f e0 00 03 e0 00     ..`.............
    2c64:	03 e0 00 03 e0 00 03 e0 00 03 e0 00 03 e0 00 03     ................
    2c74:	e0 00 03 e0 00 03 e0 00 03 e0 00 03 e0 00 03 e0     ................
    2c84:	00 0f f8 00 07 e0 00 1f f8 00 1f fc 00 38 fc 00     .............8..
    2c94:	20 7c 00 00 7c 00 00 fc 00 00 f8 00 01 f8 00 01      |..|...........
    2ca4:	f0 00 03 e0 00 07 e0 00 07 c0 00 0f 80 00 1f 82     ................
    2cb4:	00 1f fe 00 3f fc 00 7f fc 00 1f c0 00 3f f0 00     ....?........?..
    2cc4:	3f f8 00 21 f8 00 00 f8 00 00 f8 00 01 f0 00 1f     ?..!............
    2cd4:	e0 00 1f f0 00 1f f8 00 00 fc 00 00 7c 00 00 7c     ............|..|
    2ce4:	00 00 7c 00 00 f8 00 7f f8 00 3f f0 00 3f c0 00     ..|.......?..?..
    2cf4:	01 f8 00 01 f8 00 03 f8 00 03 f8 00 06 f8 00 06     ................
    2d04:	f8 00 0c f8 00 1c f8 00 18 f8 00 38 f8 00 30 f9     ...........8..0.
    2d14:	00 7f ff 00 7f fe 00 ff fe 00 00 f8 00 00 f8 00     ................
    2d24:	00 f8 00 01 fc 00 1f f8 00 1f f8 00 3f f8 00 3e     ............?..>
    2d34:	08 00 3e 00 00 3e 00 00 3f e0 00 3f f0 00 3f f8     ..>..>..?..?..?.
    2d44:	00 21 fc 00 00 7c 00 00 7c 00 00 7c 00 00 7c 00     .!...|..|..|..|.
    2d54:	01 f8 00 7f f8 00 3f f0 00 1f c0 00 00 78 00 01     ......?......x..
    2d64:	f0 00 07 e0 00 0f 80 00 1f 00 00 3e 00 00 3e f0     ...........>..>.
    2d74:	00 3d fc 00 7d fc 00 7c 7e 00 7c 3e 00 7c 3e 00     .=..}..|~.|>.|>.
    2d84:	7c 3e 00 7c 3e 00 3e 7c 00 1f fc 00 0f f8 00 07     |>.|>.>|........
    2d94:	e0 00 3f fe 00 3f fc 00 7f fc 00 40 7c 00 00 78     ..?..?.....@|..x
    2da4:	00 00 f8 00 00 f8 00 01 f0 00 01 f0 00 03 e0 00     ................
    2db4:	03 e0 00 03 e0 00 07 c0 00 07 c0 00 0f 80 00 0f     ................
    2dc4:	80 00 0f 80 00 1f c0 00 07 f0 00 0f f8 00 1f fc     ................
    2dd4:	00 3e 3e 00 3e 1e 00 3e 1e 00 3f 9c 00 1f f8 00     .>>.>..>..?.....
    2de4:	0f f8 00 1f fc 00 3c fe 00 78 3f 00 78 1f 00 78     ......<..x?.x..x
    2df4:	1f 00 7c 3f 00 3f fe 00 1f fc 00 07 f0 00 07 e0     ..|?.?..........
    2e04:	00 1f f0 00 3f f8 00 3e 7c 00 7c 3e 00 7c 3e 00     ....?..>|.|>.|>.
    2e14:	7c 3e 00 7c 3e 00 7e 3e 00 3f be 00 3f be 00 0f     |>.|>.~>.?..?...
    2e24:	7c 00 00 7c 00 00 f8 00 01 f0 00 07 e0 00 0f 80     |..|............
    2e34:	00 1e 00 00 00 00 00 00 00 00 00 00 00 00 00 00     ................
    2e44:	1c 00 00 3e 00 00 3e 00 00 3e 00 00 1c 00 00 00     ...>..>..>......
    2e54:	00 00 00 00 00 1c 00 00 3e 00 00 3e 00 00 3e 00     ........>..>..>.
    2e64:	00 1c 00 00 00 00 00 00 00 00                       ..........

00002e6e <eighteen_dot_width_table>:
    2e6e:	06 08 09 15 10 16 15 05 0b 0b 10 16 08 0b 08 08     ................
    2e7e:	10 10 10 10 10 10 10 10 10 10 08 00                 ............

00002e8a <__ctors_end>:
    2e8a:	11 24       	eor	r1, r1
    2e8c:	1f be       	out	0x3f, r1	; 63
    2e8e:	cf ef       	ldi	r28, 0xFF	; 255
    2e90:	cd bf       	out	0x3d, r28	; 61

00002e92 <__do_copy_data>:
    2e92:	11 e0       	ldi	r17, 0x01	; 1
    2e94:	a0 e0       	ldi	r26, 0x00	; 0
    2e96:	b1 e0       	ldi	r27, 0x01	; 1
    2e98:	ee e2       	ldi	r30, 0x2E	; 46
    2e9a:	fa e3       	ldi	r31, 0x3A	; 58
    2e9c:	02 c0       	rjmp	.+4      	; 0x2ea2 <.do_copy_data_start>

00002e9e <.do_copy_data_loop>:
    2e9e:	05 90       	lpm	r0, Z+
    2ea0:	0d 92       	st	X+, r0

00002ea2 <.do_copy_data_start>:
    2ea2:	a6 34       	cpi	r26, 0x46	; 70
    2ea4:	b1 07       	cpc	r27, r17
    2ea6:	d9 f7       	brne	.-10     	; 0x2e9e <.do_copy_data_loop>

00002ea8 <__do_clear_bss>:
    2ea8:	13 e0       	ldi	r17, 0x03	; 3
    2eaa:	a6 e4       	ldi	r26, 0x46	; 70
    2eac:	b1 e0       	ldi	r27, 0x01	; 1
    2eae:	01 c0       	rjmp	.+2      	; 0x2eb2 <.do_clear_bss_start>

00002eb0 <.do_clear_bss_loop>:
    2eb0:	1d 92       	st	X+, r1

00002eb2 <.do_clear_bss_start>:
    2eb2:	ae 32       	cpi	r26, 0x2E	; 46
    2eb4:	b1 07       	cpc	r27, r17
    2eb6:	e1 f7       	brne	.-8      	; 0x2eb0 <.do_clear_bss_loop>
    2eb8:	0e 94 74 17 	call	0x2ee8	; 0x2ee8 <main>
    2ebc:	0c 94 16 1d 	jmp	0x3a2c	; 0x3a2c <_exit>

00002ec0 <__bad_interrupt>:
    2ec0:	0c 94 00 00 	jmp	0	; 0x0 <__vectors>

00002ec4 <demo_upd_delay>:
    2ec4:	1f 93       	push	r17
    2ec6:	18 2f       	mov	r17, r24
    2ec8:	0e 94 c2 18 	call	0x3184	; 0x3184 <lcd_update_all>
    2ecc:	20 e0       	ldi	r18, 0x00	; 0
    2ece:	08 c0       	rjmp	.+16     	; 0x2ee0 <demo_upd_delay+0x1c>
    2ed0:	84 ed       	ldi	r24, 0xD4	; 212
    2ed2:	90 e3       	ldi	r25, 0x30	; 48
    2ed4:	fc 01       	movw	r30, r24
    2ed6:	31 97       	sbiw	r30, 0x01	; 1
    2ed8:	f1 f7       	brne	.-4      	; 0x2ed6 <demo_upd_delay+0x12>
    2eda:	01 97       	sbiw	r24, 0x01	; 1
    2edc:	f1 f7       	brne	.-4      	; 0x2eda <demo_upd_delay+0x16>
    2ede:	2f 5f       	subi	r18, 0xFF	; 255
    2ee0:	21 17       	cp	r18, r17
    2ee2:	b1 f7       	brne	.-20     	; 0x2ed0 <demo_upd_delay+0xc>
    2ee4:	1f 91       	pop	r17
    2ee6:	08 95       	ret

00002ee8 <main>:
    2ee8:	2f 92       	push	r2
    2eea:	3f 92       	push	r3
    2eec:	4f 92       	push	r4
    2eee:	5f 92       	push	r5
    2ef0:	6f 92       	push	r6
    2ef2:	7f 92       	push	r7
    2ef4:	8f 92       	push	r8
    2ef6:	9f 92       	push	r9
    2ef8:	af 92       	push	r10
    2efa:	bf 92       	push	r11
    2efc:	cf 92       	push	r12
    2efe:	df 92       	push	r13
    2f00:	ef 92       	push	r14
    2f02:	ff 92       	push	r15
    2f04:	0f 93       	push	r16
    2f06:	cf 93       	push	r28
    2f08:	df 93       	push	r29
    2f0a:	8f ef       	ldi	r24, 0xFF	; 255
    2f0c:	8d bf       	out	0x3d, r24	; 61
    2f0e:	0e 94 64 18 	call	0x30c8	; 0x30c8 <lcd_init>
    2f12:	6e e0       	ldi	r22, 0x0E	; 14
    2f14:	26 2e       	mov	r2, r22
    2f16:	61 e0       	ldi	r22, 0x01	; 1
    2f18:	36 2e       	mov	r3, r22
    2f1a:	5d e1       	ldi	r21, 0x1D	; 29
    2f1c:	45 2e       	mov	r4, r21
    2f1e:	51 e0       	ldi	r21, 0x01	; 1
    2f20:	55 2e       	mov	r5, r21
    2f22:	46 e2       	ldi	r20, 0x26	; 38
    2f24:	64 2e       	mov	r6, r20
    2f26:	41 e0       	ldi	r20, 0x01	; 1
    2f28:	74 2e       	mov	r7, r20
    2f2a:	31 e3       	ldi	r19, 0x31	; 49
    2f2c:	83 2e       	mov	r8, r19
    2f2e:	31 e0       	ldi	r19, 0x01	; 1
    2f30:	93 2e       	mov	r9, r19
    2f32:	26 ef       	ldi	r18, 0xF6	; 246
    2f34:	a2 2e       	mov	r10, r18
    2f36:	20 e0       	ldi	r18, 0x00	; 0
    2f38:	b2 2e       	mov	r11, r18
    2f3a:	9a ef       	ldi	r25, 0xFA	; 250
    2f3c:	c9 2e       	mov	r12, r25
    2f3e:	92 e0       	ldi	r25, 0x02	; 2
    2f40:	d9 2e       	mov	r13, r25
    2f42:	84 e7       	ldi	r24, 0x74	; 116
    2f44:	e8 2e       	mov	r14, r24
    2f46:	80 e0       	ldi	r24, 0x00	; 0
    2f48:	f8 2e       	mov	r15, r24
    2f4a:	c8 e6       	ldi	r28, 0x68	; 104
    2f4c:	d0 e0       	ldi	r29, 0x00	; 0
    2f4e:	0e 94 e4 18 	call	0x31c8	; 0x31c8 <lcd_erase>
    2f52:	41 e0       	ldi	r20, 0x01	; 1
    2f54:	60 e0       	ldi	r22, 0x00	; 0
    2f56:	84 e1       	ldi	r24, 0x14	; 20
    2f58:	0e 94 ea 18 	call	0x31d4	; 0x31d4 <lcd_dot>
    2f5c:	41 e0       	ldi	r20, 0x01	; 1
    2f5e:	61 e0       	ldi	r22, 0x01	; 1
    2f60:	85 e1       	ldi	r24, 0x15	; 21
    2f62:	0e 94 ea 18 	call	0x31d4	; 0x31d4 <lcd_dot>
    2f66:	41 e0       	ldi	r20, 0x01	; 1
    2f68:	62 e0       	ldi	r22, 0x02	; 2
    2f6a:	86 e1       	ldi	r24, 0x16	; 22
    2f6c:	0e 94 ea 18 	call	0x31d4	; 0x31d4 <lcd_dot>
    2f70:	41 e0       	ldi	r20, 0x01	; 1
    2f72:	63 e0       	ldi	r22, 0x03	; 3
    2f74:	87 e1       	ldi	r24, 0x17	; 23
    2f76:	0e 94 ea 18 	call	0x31d4	; 0x31d4 <lcd_dot>
    2f7a:	01 e0       	ldi	r16, 0x01	; 1
    2f7c:	2e e1       	ldi	r18, 0x1E	; 30
    2f7e:	44 e6       	ldi	r20, 0x64	; 100
    2f80:	63 e0       	ldi	r22, 0x03	; 3
    2f82:	87 e1       	ldi	r24, 0x17	; 23
    2f84:	0e 94 14 19 	call	0x3228	; 0x3228 <lcd_line>
    2f88:	84 e1       	ldi	r24, 0x14	; 20
    2f8a:	0e 94 62 17 	call	0x2ec4	; 0x2ec4 <demo_upd_delay>
    2f8e:	21 e0       	ldi	r18, 0x01	; 1
    2f90:	4f e0       	ldi	r20, 0x0F	; 15
    2f92:	64 e1       	ldi	r22, 0x14	; 20
    2f94:	8a e5       	ldi	r24, 0x5A	; 90
    2f96:	0e 94 3d 1a 	call	0x347a	; 0x347a <lcd_circle>
    2f9a:	21 e0       	ldi	r18, 0x01	; 1
    2f9c:	45 e0       	ldi	r20, 0x05	; 5
    2f9e:	6a e0       	ldi	r22, 0x0A	; 10
    2fa0:	84 e1       	ldi	r24, 0x14	; 20
    2fa2:	0e 94 3d 1a 	call	0x347a	; 0x347a <lcd_circle>
    2fa6:	84 e1       	ldi	r24, 0x14	; 20
    2fa8:	0e 94 62 17 	call	0x2ec4	; 0x2ec4 <demo_upd_delay>
    2fac:	20 e0       	ldi	r18, 0x00	; 0
    2fae:	31 e0       	ldi	r19, 0x01	; 1
    2fb0:	40 e0       	ldi	r20, 0x00	; 0
    2fb2:	64 e0       	ldi	r22, 0x04	; 4
    2fb4:	85 e0       	ldi	r24, 0x05	; 5
    2fb6:	0e 94 89 1c 	call	0x3912	; 0x3912 <lcd_text>
    2fba:	84 e1       	ldi	r24, 0x14	; 20
    2fbc:	0e 94 62 17 	call	0x2ec4	; 0x2ec4 <demo_upd_delay>
    2fc0:	91 01       	movw	r18, r2
    2fc2:	41 e0       	ldi	r20, 0x01	; 1
    2fc4:	64 e1       	ldi	r22, 0x14	; 20
    2fc6:	85 e0       	ldi	r24, 0x05	; 5
    2fc8:	0e 94 89 1c 	call	0x3912	; 0x3912 <lcd_text>
    2fcc:	84 e1       	ldi	r24, 0x14	; 20
    2fce:	0e 94 62 17 	call	0x2ec4	; 0x2ec4 <demo_upd_delay>
    2fd2:	02 e0       	ldi	r16, 0x02	; 2
    2fd4:	2c e1       	ldi	r18, 0x1C	; 28
    2fd6:	46 e7       	ldi	r20, 0x76	; 118
    2fd8:	62 e0       	ldi	r22, 0x02	; 2
    2fda:	82 e0       	ldi	r24, 0x02	; 2
    2fdc:	0e 94 f5 1a 	call	0x35ea	; 0x35ea <lcd_box>
    2fe0:	84 e1       	ldi	r24, 0x14	; 20
    2fe2:	0e 94 62 17 	call	0x2ec4	; 0x2ec4 <demo_upd_delay>
    2fe6:	0e 94 e4 18 	call	0x31c8	; 0x31c8 <lcd_erase>
    2fea:	92 01       	movw	r18, r4
    2fec:	44 e0       	ldi	r20, 0x04	; 4
    2fee:	67 e0       	ldi	r22, 0x07	; 7
    2ff0:	84 e0       	ldi	r24, 0x04	; 4
    2ff2:	0e 94 89 1c 	call	0x3912	; 0x3912 <lcd_text>
    2ff6:	84 e1       	ldi	r24, 0x14	; 20
    2ff8:	0e 94 62 17 	call	0x2ec4	; 0x2ec4 <demo_upd_delay>
    2ffc:	0e 94 e4 18 	call	0x31c8	; 0x31c8 <lcd_erase>
    3000:	93 01       	movw	r18, r6
    3002:	42 e0       	ldi	r20, 0x02	; 2
    3004:	60 e0       	ldi	r22, 0x00	; 0
    3006:	85 e0       	ldi	r24, 0x05	; 5
    3008:	0e 94 89 1c 	call	0x3912	; 0x3912 <lcd_text>
    300c:	94 01       	movw	r18, r8
    300e:	41 e0       	ldi	r20, 0x01	; 1
    3010:	60 e1       	ldi	r22, 0x10	; 16
    3012:	85 e0       	ldi	r24, 0x05	; 5
    3014:	0e 94 89 1c 	call	0x3912	; 0x3912 <lcd_text>
    3018:	84 e1       	ldi	r24, 0x14	; 20
    301a:	0e 94 62 17 	call	0x2ec4	; 0x2ec4 <demo_upd_delay>
    301e:	20 e2       	ldi	r18, 0x20	; 32
    3020:	4a e7       	ldi	r20, 0x7A	; 122
    3022:	60 e0       	ldi	r22, 0x00	; 0
    3024:	80 e0       	ldi	r24, 0x00	; 0
    3026:	0e 94 f5 1a 	call	0x35ea	; 0x35ea <lcd_box>
    302a:	84 e1       	ldi	r24, 0x14	; 20
    302c:	0e 94 62 17 	call	0x2ec4	; 0x2ec4 <demo_upd_delay>
    3030:	20 e2       	ldi	r18, 0x20	; 32
    3032:	4a e7       	ldi	r20, 0x7A	; 122
    3034:	60 e0       	ldi	r22, 0x00	; 0
    3036:	80 e0       	ldi	r24, 0x00	; 0
    3038:	0e 94 f5 1a 	call	0x35ea	; 0x35ea <lcd_box>
    303c:	84 e1       	ldi	r24, 0x14	; 20
    303e:	0e 94 62 17 	call	0x2ec4	; 0x2ec4 <demo_upd_delay>
    3042:	21 e0       	ldi	r18, 0x01	; 1
    3044:	a5 01       	movw	r20, r10
    3046:	61 e0       	ldi	r22, 0x01	; 1
    3048:	8a e5       	ldi	r24, 0x5A	; 90
    304a:	0e 94 95 1c 	call	0x392a	; 0x392a <lcd_bitmap>
    304e:	84 e1       	ldi	r24, 0x14	; 20
    3050:	0e 94 62 17 	call	0x2ec4	; 0x2ec4 <demo_upd_delay>
    3054:	0e 94 e4 18 	call	0x31c8	; 0x31c8 <lcd_erase>
    3058:	21 e0       	ldi	r18, 0x01	; 1
    305a:	a6 01       	movw	r20, r12
    305c:	60 e0       	ldi	r22, 0x00	; 0
    305e:	80 e0       	ldi	r24, 0x00	; 0
    3060:	0e 94 95 1c 	call	0x392a	; 0x392a <lcd_bitmap>
    3064:	97 01       	movw	r18, r14
    3066:	42 e0       	ldi	r20, 0x02	; 2
    3068:	63 e0       	ldi	r22, 0x03	; 3
    306a:	86 e0       	ldi	r24, 0x06	; 6
    306c:	0e 94 8f 1c 	call	0x391e	; 0x391e <lcd_text_p>
    3070:	9e 01       	movw	r18, r28
    3072:	41 e0       	ldi	r20, 0x01	; 1
    3074:	6f e0       	ldi	r22, 0x0F	; 15
    3076:	86 e0       	ldi	r24, 0x06	; 6
    3078:	0e 94 8f 1c 	call	0x391e	; 0x391e <lcd_text_p>
    307c:	84 e1       	ldi	r24, 0x14	; 20
    307e:	0e 94 62 17 	call	0x2ec4	; 0x2ec4 <demo_upd_delay>
    3082:	84 e1       	ldi	r24, 0x14	; 20
    3084:	0e 94 62 17 	call	0x2ec4	; 0x2ec4 <demo_upd_delay>
    3088:	62 cf       	rjmp	.-316    	; 0x2f4e <main+0x66>

0000308a <lcd_strobe_delay>:
    308a:	81 e0       	ldi	r24, 0x01	; 1
    308c:	8a 95       	dec	r24
    308e:	f1 f7       	brne	.-4      	; 0x308c <lcd_strobe_delay+0x2>
    3090:	08 95       	ret

00003092 <lcd_strobe_e>:
    3092:	1f 93       	push	r17
    3094:	18 2f       	mov	r17, r24
    3096:	0e 94 45 18 	call	0x308a	; 0x308a <lcd_strobe_delay>
    309a:	81 2f       	mov	r24, r17
    309c:	10 fd       	sbrc	r17, 0
    309e:	29 98       	cbi	0x05, 1	; 5
    30a0:	81 fd       	sbrc	r24, 1
    30a2:	2a 98       	cbi	0x05, 2	; 5
    30a4:	0e 94 45 18 	call	0x308a	; 0x308a <lcd_strobe_delay>
    30a8:	29 9a       	sbi	0x05, 1	; 5
    30aa:	2a 9a       	sbi	0x05, 2	; 5
    30ac:	1f 91       	pop	r17
    30ae:	08 95       	ret

000030b0 <lcd_out_ctl>:
    30b0:	28 98       	cbi	0x05, 0	; 5
    30b2:	8b b9       	out	0x0b, r24	; 11
    30b4:	86 2f       	mov	r24, r22
    30b6:	0e 94 49 18 	call	0x3092	; 0x3092 <lcd_strobe_e>
    30ba:	08 95       	ret

000030bc <lcd_out_dat>:
    30bc:	28 9a       	sbi	0x05, 0	; 5
    30be:	8b b9       	out	0x0b, r24	; 11
    30c0:	86 2f       	mov	r24, r22
    30c2:	0e 94 49 18 	call	0x3092	; 0x3092 <lcd_strobe_e>
    30c6:	08 95       	ret

000030c8 <lcd_init>:
    30c8:	8f ef       	ldi	r24, 0xFF	; 255
    30ca:	8a b9       	out	0x0a, r24	; 10
    30cc:	84 b1       	in	r24, 0x04	; 4
    30ce:	87 60       	ori	r24, 0x07	; 7
    30d0:	84 b9       	out	0x04, r24	; 4
    30d2:	63 e0       	ldi	r22, 0x03	; 3
    30d4:	80 e0       	ldi	r24, 0x00	; 0
    30d6:	0e 94 58 18 	call	0x30b0	; 0x30b0 <lcd_out_ctl>
    30da:	63 e0       	ldi	r22, 0x03	; 3
    30dc:	82 ee       	ldi	r24, 0xE2	; 226
    30de:	0e 94 58 18 	call	0x30b0	; 0x30b0 <lcd_out_ctl>
    30e2:	88 ea       	ldi	r24, 0xA8	; 168
    30e4:	91 e6       	ldi	r25, 0x61	; 97
    30e6:	01 97       	sbiw	r24, 0x01	; 1
    30e8:	f1 f7       	brne	.-4      	; 0x30e6 <lcd_init+0x1e>
    30ea:	63 e0       	ldi	r22, 0x03	; 3
    30ec:	8f ea       	ldi	r24, 0xAF	; 175
    30ee:	0e 94 58 18 	call	0x30b0	; 0x30b0 <lcd_out_ctl>
    30f2:	63 e0       	ldi	r22, 0x03	; 3
    30f4:	81 ea       	ldi	r24, 0xA1	; 161
    30f6:	0e 94 58 18 	call	0x30b0	; 0x30b0 <lcd_out_ctl>
    30fa:	63 e0       	ldi	r22, 0x03	; 3
    30fc:	80 ec       	ldi	r24, 0xC0	; 192
    30fe:	0e 94 58 18 	call	0x30b0	; 0x30b0 <lcd_out_ctl>
    3102:	63 e0       	ldi	r22, 0x03	; 3
    3104:	88 eb       	ldi	r24, 0xB8	; 184
    3106:	0e 94 58 18 	call	0x30b0	; 0x30b0 <lcd_out_ctl>
    310a:	63 e0       	ldi	r22, 0x03	; 3
    310c:	83 e1       	ldi	r24, 0x13	; 19
    310e:	0e 94 58 18 	call	0x30b0	; 0x30b0 <lcd_out_ctl>
    3112:	08 95       	ret

00003114 <lcd_update>:
    3114:	ef 92       	push	r14
    3116:	ff 92       	push	r15
    3118:	0f 93       	push	r16
    311a:	1f 93       	push	r17
    311c:	cf 93       	push	r28
    311e:	df 93       	push	r29
    3120:	e6 2e       	mov	r14, r22
    3122:	e6 94       	lsr	r14
    3124:	e6 94       	lsr	r14
    3126:	e6 94       	lsr	r14
    3128:	f8 2e       	mov	r15, r24
    312a:	f6 94       	lsr	r15
    312c:	f6 94       	lsr	r15
    312e:	f6 94       	lsr	r15
    3130:	20 c0       	rjmp	.+64     	; 0x3172 <lcd_update+0x5e>
    3132:	63 e0       	ldi	r22, 0x03	; 3
    3134:	8f 2d       	mov	r24, r15
    3136:	88 54       	subi	r24, 0x48	; 72
    3138:	0e 94 58 18 	call	0x30b0	; 0x30b0 <lcd_out_ctl>
    313c:	63 e0       	ldi	r22, 0x03	; 3
    313e:	80 e0       	ldi	r24, 0x00	; 0
    3140:	0e 94 58 18 	call	0x30b0	; 0x30b0 <lcd_out_ctl>
    3144:	8a e7       	ldi	r24, 0x7A	; 122
    3146:	f8 9e       	mul	r15, r24
    3148:	e0 01       	movw	r28, r0
    314a:	11 24       	eor	r1, r1
    314c:	ca 5b       	subi	r28, 0xBA	; 186
    314e:	de 4f       	sbci	r29, 0xFE	; 254
    3150:	00 e0       	ldi	r16, 0x00	; 0
    3152:	10 e0       	ldi	r17, 0x00	; 0
    3154:	0d 33       	cpi	r16, 0x3D	; 61
    3156:	10 f4       	brcc	.+4      	; 0x315c <lcd_update+0x48>
    3158:	61 e0       	ldi	r22, 0x01	; 1
    315a:	01 c0       	rjmp	.+2      	; 0x315e <lcd_update+0x4a>
    315c:	62 e0       	ldi	r22, 0x02	; 2
    315e:	88 81       	ld	r24, Y
    3160:	0e 94 5e 18 	call	0x30bc	; 0x30bc <lcd_out_dat>
    3164:	0f 5f       	subi	r16, 0xFF	; 255
    3166:	1f 4f       	sbci	r17, 0xFF	; 255
    3168:	21 96       	adiw	r28, 0x01	; 1
    316a:	0a 37       	cpi	r16, 0x7A	; 122
    316c:	11 05       	cpc	r17, r1
    316e:	91 f7       	brne	.-28     	; 0x3154 <lcd_update+0x40>
    3170:	f3 94       	inc	r15
    3172:	ef 14       	cp	r14, r15
    3174:	f0 f6       	brcc	.-68     	; 0x3132 <lcd_update+0x1e>
    3176:	df 91       	pop	r29
    3178:	cf 91       	pop	r28
    317a:	1f 91       	pop	r17
    317c:	0f 91       	pop	r16
    317e:	ff 90       	pop	r15
    3180:	ef 90       	pop	r14
    3182:	08 95       	ret

00003184 <lcd_update_all>:
    3184:	6f e1       	ldi	r22, 0x1F	; 31
    3186:	80 e0       	ldi	r24, 0x00	; 0
    3188:	0e 94 8a 18 	call	0x3114	; 0x3114 <lcd_update>
    318c:	08 95       	ret

0000318e <lcd_fill>:
    318e:	48 2f       	mov	r20, r24
    3190:	20 e0       	ldi	r18, 0x00	; 0
    3192:	30 e0       	ldi	r19, 0x00	; 0
    3194:	09 c0       	rjmp	.+18     	; 0x31a8 <lcd_fill+0x1a>
    3196:	41 93       	st	Z+, r20
    3198:	8f 5f       	subi	r24, 0xFF	; 255
    319a:	8a 37       	cpi	r24, 0x7A	; 122
    319c:	e1 f7       	brne	.-8      	; 0x3196 <lcd_fill+0x8>
    319e:	2f 5f       	subi	r18, 0xFF	; 255
    31a0:	3f 4f       	sbci	r19, 0xFF	; 255
    31a2:	24 30       	cpi	r18, 0x04	; 4
    31a4:	31 05       	cpc	r19, r1
    31a6:	69 f0       	breq	.+26     	; 0x31c2 <lcd_fill+0x34>
    31a8:	8a e7       	ldi	r24, 0x7A	; 122
    31aa:	90 e0       	ldi	r25, 0x00	; 0
    31ac:	28 9f       	mul	r18, r24
    31ae:	f0 01       	movw	r30, r0
    31b0:	29 9f       	mul	r18, r25
    31b2:	f0 0d       	add	r31, r0
    31b4:	38 9f       	mul	r19, r24
    31b6:	f0 0d       	add	r31, r0
    31b8:	11 24       	eor	r1, r1
    31ba:	ea 5b       	subi	r30, 0xBA	; 186
    31bc:	fe 4f       	sbci	r31, 0xFE	; 254
    31be:	80 e0       	ldi	r24, 0x00	; 0
    31c0:	ea cf       	rjmp	.-44     	; 0x3196 <lcd_fill+0x8>
    31c2:	0e 94 c2 18 	call	0x3184	; 0x3184 <lcd_update_all>
    31c6:	08 95       	ret

000031c8 <lcd_erase>:
    31c8:	80 e0       	ldi	r24, 0x00	; 0
    31ca:	0e 94 c7 18 	call	0x318e	; 0x318e <lcd_fill>
    31ce:	0e 94 c2 18 	call	0x3184	; 0x3184 <lcd_update_all>
    31d2:	08 95       	ret

000031d4 <lcd_dot>:
    31d4:	28 2f       	mov	r18, r24
    31d6:	8a 37       	cpi	r24, 0x7A	; 122
    31d8:	30 f5       	brcc	.+76     	; 0x3226 <lcd_dot+0x52>
    31da:	60 32       	cpi	r22, 0x20	; 32
    31dc:	20 f5       	brcc	.+72     	; 0x3226 <lcd_dot+0x52>
    31de:	e6 2f       	mov	r30, r22
    31e0:	f0 e0       	ldi	r31, 0x00	; 0
    31e2:	e7 70       	andi	r30, 0x07	; 7
    31e4:	f0 70       	andi	r31, 0x00	; 0
    31e6:	e3 5c       	subi	r30, 0xC3	; 195
    31e8:	fe 4f       	sbci	r31, 0xFE	; 254
    31ea:	90 81       	ld	r25, Z
    31ec:	66 95       	lsr	r22
    31ee:	66 95       	lsr	r22
    31f0:	66 95       	lsr	r22
    31f2:	8a e7       	ldi	r24, 0x7A	; 122
    31f4:	68 9f       	mul	r22, r24
    31f6:	f0 01       	movw	r30, r0
    31f8:	11 24       	eor	r1, r1
    31fa:	ea 5b       	subi	r30, 0xBA	; 186
    31fc:	fe 4f       	sbci	r31, 0xFE	; 254
    31fe:	e2 0f       	add	r30, r18
    3200:	f1 1d       	adc	r31, r1
    3202:	41 30       	cpi	r20, 0x01	; 1
    3204:	29 f0       	breq	.+10     	; 0x3210 <lcd_dot+0x3c>
    3206:	41 30       	cpi	r20, 0x01	; 1
    3208:	30 f0       	brcs	.+12     	; 0x3216 <lcd_dot+0x42>
    320a:	42 30       	cpi	r20, 0x02	; 2
    320c:	61 f4       	brne	.+24     	; 0x3226 <lcd_dot+0x52>
    320e:	08 c0       	rjmp	.+16     	; 0x3220 <lcd_dot+0x4c>
    3210:	80 81       	ld	r24, Z
    3212:	89 2b       	or	r24, r25
    3214:	03 c0       	rjmp	.+6      	; 0x321c <lcd_dot+0x48>
    3216:	90 95       	com	r25
    3218:	80 81       	ld	r24, Z
    321a:	89 23       	and	r24, r25
    321c:	80 83       	st	Z, r24
    321e:	08 95       	ret
    3220:	80 81       	ld	r24, Z
    3222:	89 27       	eor	r24, r25
    3224:	80 83       	st	Z, r24
    3226:	08 95       	ret

00003228 <lcd_line>:
    3228:	2f 92       	push	r2
    322a:	3f 92       	push	r3
    322c:	4f 92       	push	r4
    322e:	5f 92       	push	r5
    3230:	6f 92       	push	r6
    3232:	7f 92       	push	r7
    3234:	8f 92       	push	r8
    3236:	9f 92       	push	r9
    3238:	af 92       	push	r10
    323a:	bf 92       	push	r11
    323c:	cf 92       	push	r12
    323e:	df 92       	push	r13
    3240:	ef 92       	push	r14
    3242:	ff 92       	push	r15
    3244:	0f 93       	push	r16
    3246:	1f 93       	push	r17
    3248:	cf 93       	push	r28
    324a:	df 93       	push	r29
    324c:	d8 2e       	mov	r13, r24
    324e:	c6 2e       	mov	r12, r22
    3250:	f4 2e       	mov	r15, r20
    3252:	e2 2e       	mov	r14, r18
    3254:	30 2e       	mov	r3, r16
    3256:	84 17       	cp	r24, r20
    3258:	99 f4       	brne	.+38     	; 0x3280 <lcd_line+0x58>
    325a:	26 17       	cp	r18, r22
    325c:	10 f4       	brcc	.+4      	; 0x3262 <lcd_line+0x3a>
    325e:	e6 2e       	mov	r14, r22
    3260:	c2 2e       	mov	r12, r18
    3262:	1e 2d       	mov	r17, r14
    3264:	1c 19       	sub	r17, r12
    3266:	c0 e0       	ldi	r28, 0x00	; 0
    3268:	d0 e0       	ldi	r29, 0x00	; 0
    326a:	6c 2d       	mov	r22, r12
    326c:	6c 0f       	add	r22, r28
    326e:	43 2d       	mov	r20, r3
    3270:	8d 2d       	mov	r24, r13
    3272:	0e 94 ea 18 	call	0x31d4	; 0x31d4 <lcd_dot>
    3276:	21 96       	adiw	r28, 0x01	; 1
    3278:	1c 17       	cp	r17, r28
    327a:	08 f4       	brcc	.+2      	; 0x327e <lcd_line+0x56>
    327c:	eb c0       	rjmp	.+470    	; 0x3454 <lcd_line+0x22c>
    327e:	f5 cf       	rjmp	.-22     	; 0x326a <lcd_line+0x42>
    3280:	62 17       	cp	r22, r18
    3282:	99 f4       	brne	.+38     	; 0x32aa <lcd_line+0x82>
    3284:	48 17       	cp	r20, r24
    3286:	10 f4       	brcc	.+4      	; 0x328c <lcd_line+0x64>
    3288:	fd 2c       	mov	r15, r13
    328a:	d4 2e       	mov	r13, r20
    328c:	1f 2d       	mov	r17, r15
    328e:	1d 19       	sub	r17, r13
    3290:	c0 e0       	ldi	r28, 0x00	; 0
    3292:	d0 e0       	ldi	r29, 0x00	; 0
    3294:	43 2d       	mov	r20, r3
    3296:	6c 2d       	mov	r22, r12
    3298:	8d 2d       	mov	r24, r13
    329a:	8c 0f       	add	r24, r28
    329c:	0e 94 ea 18 	call	0x31d4	; 0x31d4 <lcd_dot>
    32a0:	21 96       	adiw	r28, 0x01	; 1
    32a2:	1c 17       	cp	r17, r28
    32a4:	08 f4       	brcc	.+2      	; 0x32a8 <lcd_line+0x80>
    32a6:	d6 c0       	rjmp	.+428    	; 0x3454 <lcd_line+0x22c>
    32a8:	f5 cf       	rjmp	.-22     	; 0x3294 <lcd_line+0x6c>
    32aa:	48 17       	cp	r20, r24
    32ac:	20 f4       	brcc	.+8      	; 0x32b6 <lcd_line+0x8e>
    32ae:	fd 2c       	mov	r15, r13
    32b0:	d4 2e       	mov	r13, r20
    32b2:	e6 2e       	mov	r14, r22
    32b4:	c2 2e       	mov	r12, r18
    32b6:	ce 2d       	mov	r28, r14
    32b8:	d0 e0       	ldi	r29, 0x00	; 0
    32ba:	ec 2d       	mov	r30, r12
    32bc:	f0 e0       	ldi	r31, 0x00	; 0
    32be:	4e 01       	movw	r8, r28
    32c0:	8e 1a       	sub	r8, r30
    32c2:	9f 0a       	sbc	r9, r31
    32c4:	2f 2d       	mov	r18, r15
    32c6:	30 e0       	ldi	r19, 0x00	; 0
    32c8:	2d 19       	sub	r18, r13
    32ca:	31 09       	sbc	r19, r1
    32cc:	82 16       	cp	r8, r18
    32ce:	93 06       	cpc	r9, r19
    32d0:	3c f4       	brge	.+14     	; 0x32e0 <lcd_line+0xb8>
    32d2:	cf 01       	movw	r24, r30
    32d4:	8c 1b       	sub	r24, r28
    32d6:	9d 0b       	sbc	r25, r29
    32d8:	82 17       	cp	r24, r18
    32da:	93 07       	cpc	r25, r19
    32dc:	0c f4       	brge	.+2      	; 0x32e0 <lcd_line+0xb8>
    32de:	57 c0       	rjmp	.+174    	; 0x338e <lcd_line+0x166>
    32e0:	2f 2c       	mov	r2, r15
    32e2:	2d 18       	sub	r2, r13
    32e4:	a2 2c       	mov	r10, r2
    32e6:	bb 24       	eor	r11, r11
    32e8:	88 ec       	ldi	r24, 0xC8	; 200
    32ea:	90 e0       	ldi	r25, 0x00	; 0
    32ec:	9c 01       	movw	r18, r24
    32ee:	82 9e       	mul	r8, r18
    32f0:	c0 01       	movw	r24, r0
    32f2:	83 9e       	mul	r8, r19
    32f4:	90 0d       	add	r25, r0
    32f6:	92 9e       	mul	r9, r18
    32f8:	90 0d       	add	r25, r0
    32fa:	11 24       	eor	r1, r1
    32fc:	b5 01       	movw	r22, r10
    32fe:	0e 94 ef 1c 	call	0x39de	; 0x39de <__divmodhi4>
    3302:	2b 01       	movw	r4, r22
    3304:	fc 2c       	mov	r15, r12
    3306:	66 24       	eor	r6, r6
    3308:	77 24       	eor	r7, r7
    330a:	ec 1b       	sub	r30, r28
    330c:	fd 0b       	sbc	r31, r29
    330e:	ef 01       	movw	r28, r30
    3310:	46 2d       	mov	r20, r6
    3312:	86 2d       	mov	r24, r6
    3314:	90 e0       	ldi	r25, 0x00	; 0
    3316:	84 9d       	mul	r24, r4
    3318:	90 01       	movw	r18, r0
    331a:	85 9d       	mul	r24, r5
    331c:	30 0d       	add	r19, r0
    331e:	94 9d       	mul	r25, r4
    3320:	30 0d       	add	r19, r0
    3322:	11 24       	eor	r1, r1
    3324:	c9 01       	movw	r24, r18
    3326:	68 ec       	ldi	r22, 0xC8	; 200
    3328:	70 e0       	ldi	r23, 0x00	; 0
    332a:	0e 94 ef 1c 	call	0x39de	; 0x39de <__divmodhi4>
    332e:	1c 2d       	mov	r17, r12
    3330:	16 0f       	add	r17, r22
    3332:	c9 01       	movw	r24, r18
    3334:	68 ec       	ldi	r22, 0xC8	; 200
    3336:	70 e0       	ldi	r23, 0x00	; 0
    3338:	0e 94 ef 1c 	call	0x39de	; 0x39de <__divmodhi4>
    333c:	84 36       	cpi	r24, 0x64	; 100
    333e:	91 05       	cpc	r25, r1
    3340:	14 f0       	brlt	.+4      	; 0x3346 <lcd_line+0x11e>
    3342:	1f 5f       	subi	r17, 0xFF	; 255
    3344:	04 c0       	rjmp	.+8      	; 0x334e <lcd_line+0x126>
    3346:	8d 59       	subi	r24, 0x9D	; 157
    3348:	9f 4f       	sbci	r25, 0xFF	; 255
    334a:	0c f4       	brge	.+2      	; 0x334e <lcd_line+0x126>
    334c:	11 50       	subi	r17, 0x01	; 1
    334e:	84 2f       	mov	r24, r20
    3350:	8d 0d       	add	r24, r13
    3352:	03 2d       	mov	r16, r3
    3354:	21 2f       	mov	r18, r17
    3356:	48 2f       	mov	r20, r24
    3358:	6f 2d       	mov	r22, r15
    335a:	0e 94 14 19 	call	0x3228	; 0x3228 <lcd_line>
    335e:	8a 14       	cp	r8, r10
    3360:	9b 04       	cpc	r9, r11
    3362:	2c f0       	brlt	.+10     	; 0x336e <lcd_line+0x146>
    3364:	ce 14       	cp	r12, r14
    3366:	18 f4       	brcc	.+6      	; 0x336e <lcd_line+0x146>
    3368:	f1 2e       	mov	r15, r17
    336a:	f3 94       	inc	r15
    336c:	09 c0       	rjmp	.+18     	; 0x3380 <lcd_line+0x158>
    336e:	ca 15       	cp	r28, r10
    3370:	db 05       	cpc	r29, r11
    3372:	2c f0       	brlt	.+10     	; 0x337e <lcd_line+0x156>
    3374:	ec 14       	cp	r14, r12
    3376:	18 f4       	brcc	.+6      	; 0x337e <lcd_line+0x156>
    3378:	f1 2e       	mov	r15, r17
    337a:	fa 94       	dec	r15
    337c:	01 c0       	rjmp	.+2      	; 0x3380 <lcd_line+0x158>
    337e:	f1 2e       	mov	r15, r17
    3380:	08 94       	sec
    3382:	61 1c       	adc	r6, r1
    3384:	71 1c       	adc	r7, r1
    3386:	26 14       	cp	r2, r6
    3388:	08 f4       	brcc	.+2      	; 0x338c <lcd_line+0x164>
    338a:	64 c0       	rjmp	.+200    	; 0x3454 <lcd_line+0x22c>
    338c:	c1 cf       	rjmp	.-126    	; 0x3310 <lcd_line+0xe8>
    338e:	ec 14       	cp	r14, r12
    3390:	28 f4       	brcc	.+10     	; 0x339c <lcd_line+0x174>
    3392:	8f 2d       	mov	r24, r15
    3394:	fd 2c       	mov	r15, r13
    3396:	d8 2e       	mov	r13, r24
    3398:	ec 2c       	mov	r14, r12
    339a:	cc 2e       	mov	r12, r28
    339c:	2e 2c       	mov	r2, r14
    339e:	2c 18       	sub	r2, r12
    33a0:	ef 2d       	mov	r30, r15
    33a2:	f0 e0       	ldi	r31, 0x00	; 0
    33a4:	2d 2d       	mov	r18, r13
    33a6:	30 e0       	ldi	r19, 0x00	; 0
    33a8:	4f 01       	movw	r8, r30
    33aa:	82 1a       	sub	r8, r18
    33ac:	93 0a       	sbc	r9, r19
    33ae:	c2 2d       	mov	r28, r2
    33b0:	d0 e0       	ldi	r29, 0x00	; 0
    33b2:	88 ec       	ldi	r24, 0xC8	; 200
    33b4:	90 e0       	ldi	r25, 0x00	; 0
    33b6:	ac 01       	movw	r20, r24
    33b8:	84 9e       	mul	r8, r20
    33ba:	c0 01       	movw	r24, r0
    33bc:	85 9e       	mul	r8, r21
    33be:	90 0d       	add	r25, r0
    33c0:	94 9e       	mul	r9, r20
    33c2:	90 0d       	add	r25, r0
    33c4:	11 24       	eor	r1, r1
    33c6:	be 01       	movw	r22, r28
    33c8:	0e 94 ef 1c 	call	0x39de	; 0x39de <__divmodhi4>
    33cc:	2b 01       	movw	r4, r22
    33ce:	ed 2c       	mov	r14, r13
    33d0:	aa 24       	eor	r10, r10
    33d2:	bb 24       	eor	r11, r11
    33d4:	39 01       	movw	r6, r18
    33d6:	6e 1a       	sub	r6, r30
    33d8:	7f 0a       	sbc	r7, r31
    33da:	4a 2d       	mov	r20, r10
    33dc:	8a 2d       	mov	r24, r10
    33de:	90 e0       	ldi	r25, 0x00	; 0
    33e0:	84 9d       	mul	r24, r4
    33e2:	90 01       	movw	r18, r0
    33e4:	85 9d       	mul	r24, r5
    33e6:	30 0d       	add	r19, r0
    33e8:	94 9d       	mul	r25, r4
    33ea:	30 0d       	add	r19, r0
    33ec:	11 24       	eor	r1, r1
    33ee:	c9 01       	movw	r24, r18
    33f0:	68 ec       	ldi	r22, 0xC8	; 200
    33f2:	70 e0       	ldi	r23, 0x00	; 0
    33f4:	0e 94 ef 1c 	call	0x39de	; 0x39de <__divmodhi4>
    33f8:	1d 2d       	mov	r17, r13
    33fa:	16 0f       	add	r17, r22
    33fc:	c9 01       	movw	r24, r18
    33fe:	68 ec       	ldi	r22, 0xC8	; 200
    3400:	70 e0       	ldi	r23, 0x00	; 0
    3402:	0e 94 ef 1c 	call	0x39de	; 0x39de <__divmodhi4>
    3406:	84 36       	cpi	r24, 0x64	; 100
    3408:	91 05       	cpc	r25, r1
    340a:	14 f0       	brlt	.+4      	; 0x3410 <lcd_line+0x1e8>
    340c:	1f 5f       	subi	r17, 0xFF	; 255
    340e:	04 c0       	rjmp	.+8      	; 0x3418 <lcd_line+0x1f0>
    3410:	8d 59       	subi	r24, 0x9D	; 157
    3412:	9f 4f       	sbci	r25, 0xFF	; 255
    3414:	0c f4       	brge	.+2      	; 0x3418 <lcd_line+0x1f0>
    3416:	11 50       	subi	r17, 0x01	; 1
    3418:	64 2f       	mov	r22, r20
    341a:	6c 0d       	add	r22, r12
    341c:	03 2d       	mov	r16, r3
    341e:	26 2f       	mov	r18, r22
    3420:	41 2f       	mov	r20, r17
    3422:	8e 2d       	mov	r24, r14
    3424:	0e 94 14 19 	call	0x3228	; 0x3228 <lcd_line>
    3428:	8c 16       	cp	r8, r28
    342a:	9d 06       	cpc	r9, r29
    342c:	2c f0       	brlt	.+10     	; 0x3438 <lcd_line+0x210>
    342e:	df 14       	cp	r13, r15
    3430:	18 f4       	brcc	.+6      	; 0x3438 <lcd_line+0x210>
    3432:	e1 2e       	mov	r14, r17
    3434:	e3 94       	inc	r14
    3436:	09 c0       	rjmp	.+18     	; 0x344a <lcd_line+0x222>
    3438:	6c 16       	cp	r6, r28
    343a:	7d 06       	cpc	r7, r29
    343c:	2c f0       	brlt	.+10     	; 0x3448 <lcd_line+0x220>
    343e:	fd 14       	cp	r15, r13
    3440:	18 f4       	brcc	.+6      	; 0x3448 <lcd_line+0x220>
    3442:	e1 2e       	mov	r14, r17
    3444:	ea 94       	dec	r14
    3446:	01 c0       	rjmp	.+2      	; 0x344a <lcd_line+0x222>
    3448:	e1 2e       	mov	r14, r17
    344a:	08 94       	sec
    344c:	a1 1c       	adc	r10, r1
    344e:	b1 1c       	adc	r11, r1
    3450:	2a 14       	cp	r2, r10
    3452:	18 f6       	brcc	.-122    	; 0x33da <lcd_line+0x1b2>
    3454:	df 91       	pop	r29
    3456:	cf 91       	pop	r28
    3458:	1f 91       	pop	r17
    345a:	0f 91       	pop	r16
    345c:	ff 90       	pop	r15
    345e:	ef 90       	pop	r14
    3460:	df 90       	pop	r13
    3462:	cf 90       	pop	r12
    3464:	bf 90       	pop	r11
    3466:	af 90       	pop	r10
    3468:	9f 90       	pop	r9
    346a:	8f 90       	pop	r8
    346c:	7f 90       	pop	r7
    346e:	6f 90       	pop	r6
    3470:	5f 90       	pop	r5
    3472:	4f 90       	pop	r4
    3474:	3f 90       	pop	r3
    3476:	2f 90       	pop	r2
    3478:	08 95       	ret

0000347a <lcd_circle>:
    347a:	3f 92       	push	r3
    347c:	4f 92       	push	r4
    347e:	5f 92       	push	r5
    3480:	6f 92       	push	r6
    3482:	7f 92       	push	r7
    3484:	8f 92       	push	r8
    3486:	9f 92       	push	r9
    3488:	af 92       	push	r10
    348a:	bf 92       	push	r11
    348c:	cf 92       	push	r12
    348e:	df 92       	push	r13
    3490:	ef 92       	push	r14
    3492:	ff 92       	push	r15
    3494:	0f 93       	push	r16
    3496:	1f 93       	push	r17
    3498:	cf 93       	push	r28
    349a:	df 93       	push	r29
    349c:	68 2e       	mov	r6, r24
    349e:	76 2e       	mov	r7, r22
    34a0:	c2 2e       	mov	r12, r18
    34a2:	36 2e       	mov	r3, r22
    34a4:	38 1a       	sub	r3, r24
    34a6:	a4 2e       	mov	r10, r20
    34a8:	bb 24       	eor	r11, r11
    34aa:	c5 01       	movw	r24, r10
    34ac:	88 0f       	add	r24, r24
    34ae:	99 1f       	adc	r25, r25
    34b0:	c3 e0       	ldi	r28, 0x03	; 3
    34b2:	d0 e0       	ldi	r29, 0x00	; 0
    34b4:	c8 1b       	sub	r28, r24
    34b6:	d9 0b       	sbc	r29, r25
    34b8:	88 24       	eor	r8, r8
    34ba:	99 24       	eor	r9, r9
    34bc:	44 24       	eor	r4, r4
    34be:	55 24       	eor	r5, r5
    34c0:	1a 2d       	mov	r17, r10
    34c2:	17 0d       	add	r17, r7
    34c4:	f8 2c       	mov	r15, r8
    34c6:	f6 0c       	add	r15, r6
    34c8:	4c 2d       	mov	r20, r12
    34ca:	61 2f       	mov	r22, r17
    34cc:	8f 2d       	mov	r24, r15
    34ce:	0e 94 ea 18 	call	0x31d4	; 0x31d4 <lcd_dot>
    34d2:	87 2d       	mov	r24, r7
    34d4:	8a 19       	sub	r24, r10
    34d6:	08 2f       	mov	r16, r24
    34d8:	4c 2d       	mov	r20, r12
    34da:	68 2f       	mov	r22, r24
    34dc:	8f 2d       	mov	r24, r15
    34de:	0e 94 ea 18 	call	0x31d4	; 0x31d4 <lcd_dot>
    34e2:	f6 2c       	mov	r15, r6
    34e4:	f8 18       	sub	r15, r8
    34e6:	4c 2d       	mov	r20, r12
    34e8:	61 2f       	mov	r22, r17
    34ea:	8f 2d       	mov	r24, r15
    34ec:	0e 94 ea 18 	call	0x31d4	; 0x31d4 <lcd_dot>
    34f0:	4c 2d       	mov	r20, r12
    34f2:	60 2f       	mov	r22, r16
    34f4:	8f 2d       	mov	r24, r15
    34f6:	0e 94 ea 18 	call	0x31d4	; 0x31d4 <lcd_dot>
    34fa:	d8 2c       	mov	r13, r8
    34fc:	d7 0c       	add	r13, r7
    34fe:	13 19       	sub	r17, r3
    3500:	4c 2d       	mov	r20, r12
    3502:	6d 2d       	mov	r22, r13
    3504:	81 2f       	mov	r24, r17
    3506:	0e 94 ea 18 	call	0x31d4	; 0x31d4 <lcd_dot>
    350a:	f7 2c       	mov	r15, r7
    350c:	f8 18       	sub	r15, r8
    350e:	4c 2d       	mov	r20, r12
    3510:	6f 2d       	mov	r22, r15
    3512:	81 2f       	mov	r24, r17
    3514:	0e 94 ea 18 	call	0x31d4	; 0x31d4 <lcd_dot>
    3518:	03 19       	sub	r16, r3
    351a:	4c 2d       	mov	r20, r12
    351c:	6d 2d       	mov	r22, r13
    351e:	80 2f       	mov	r24, r16
    3520:	0e 94 ea 18 	call	0x31d4	; 0x31d4 <lcd_dot>
    3524:	4c 2d       	mov	r20, r12
    3526:	6f 2d       	mov	r22, r15
    3528:	80 2f       	mov	r24, r16
    352a:	0e 94 ea 18 	call	0x31d4	; 0x31d4 <lcd_dot>
    352e:	d7 ff       	sbrs	r29, 7
    3530:	04 c0       	rjmp	.+8      	; 0x353a <lcd_circle+0xc0>
    3532:	26 96       	adiw	r28, 0x06	; 6
    3534:	c4 0d       	add	r28, r4
    3536:	d5 1d       	adc	r29, r5
    3538:	0d c0       	rjmp	.+26     	; 0x3554 <lcd_circle+0xda>
    353a:	2a 96       	adiw	r28, 0x0a	; 10
    353c:	c4 01       	movw	r24, r8
    353e:	8a 19       	sub	r24, r10
    3540:	9b 09       	sbc	r25, r11
    3542:	88 0f       	add	r24, r24
    3544:	99 1f       	adc	r25, r25
    3546:	88 0f       	add	r24, r24
    3548:	99 1f       	adc	r25, r25
    354a:	c8 0f       	add	r28, r24
    354c:	d9 1f       	adc	r29, r25
    354e:	08 94       	sec
    3550:	a1 08       	sbc	r10, r1
    3552:	b1 08       	sbc	r11, r1
    3554:	08 94       	sec
    3556:	81 1c       	adc	r8, r1
    3558:	91 1c       	adc	r9, r1
    355a:	84 e0       	ldi	r24, 0x04	; 4
    355c:	90 e0       	ldi	r25, 0x00	; 0
    355e:	48 0e       	add	r4, r24
    3560:	59 1e       	adc	r5, r25
    3562:	a8 14       	cp	r10, r8
    3564:	b9 04       	cpc	r11, r9
    3566:	0c f0       	brlt	.+2      	; 0x356a <lcd_circle+0xf0>
    3568:	ab cf       	rjmp	.-170    	; 0x34c0 <lcd_circle+0x46>
    356a:	df 91       	pop	r29
    356c:	cf 91       	pop	r28
    356e:	1f 91       	pop	r17
    3570:	0f 91       	pop	r16
    3572:	ff 90       	pop	r15
    3574:	ef 90       	pop	r14
    3576:	df 90       	pop	r13
    3578:	cf 90       	pop	r12
    357a:	bf 90       	pop	r11
    357c:	af 90       	pop	r10
    357e:	9f 90       	pop	r9
    3580:	8f 90       	pop	r8
    3582:	7f 90       	pop	r7
    3584:	6f 90       	pop	r6
    3586:	5f 90       	pop	r5
    3588:	4f 90       	pop	r4
    358a:	3f 90       	pop	r3
    358c:	08 95       	ret

0000358e <lcd_rect>:
    358e:	cf 92       	push	r12
    3590:	df 92       	push	r13
    3592:	ef 92       	push	r14
    3594:	ff 92       	push	r15
    3596:	0f 93       	push	r16
    3598:	1f 93       	push	r17
    359a:	18 2f       	mov	r17, r24
    359c:	f6 2e       	mov	r15, r22
    359e:	d4 2e       	mov	r13, r20
    35a0:	e2 2e       	mov	r14, r18
    35a2:	11 50       	subi	r17, 0x01	; 1
    35a4:	d1 0e       	add	r13, r17
    35a6:	1f 5f       	subi	r17, 0xFF	; 255
    35a8:	26 2f       	mov	r18, r22
    35aa:	4d 2d       	mov	r20, r13
    35ac:	81 2f       	mov	r24, r17
    35ae:	0e 94 14 19 	call	0x3228	; 0x3228 <lcd_line>
    35b2:	fa 94       	dec	r15
    35b4:	ef 0c       	add	r14, r15
    35b6:	f3 94       	inc	r15
    35b8:	2e 2d       	mov	r18, r14
    35ba:	41 2f       	mov	r20, r17
    35bc:	6f 2d       	mov	r22, r15
    35be:	81 2f       	mov	r24, r17
    35c0:	0e 94 14 19 	call	0x3228	; 0x3228 <lcd_line>
    35c4:	2e 2d       	mov	r18, r14
    35c6:	4d 2d       	mov	r20, r13
    35c8:	6e 2d       	mov	r22, r14
    35ca:	81 2f       	mov	r24, r17
    35cc:	0e 94 14 19 	call	0x3228	; 0x3228 <lcd_line>
    35d0:	2e 2d       	mov	r18, r14
    35d2:	4d 2d       	mov	r20, r13
    35d4:	6f 2d       	mov	r22, r15
    35d6:	8d 2d       	mov	r24, r13
    35d8:	0e 94 14 19 	call	0x3228	; 0x3228 <lcd_line>
    35dc:	1f 91       	pop	r17
    35de:	0f 91       	pop	r16
    35e0:	ff 90       	pop	r15
    35e2:	ef 90       	pop	r14
    35e4:	df 90       	pop	r13
    35e6:	cf 90       	pop	r12
    35e8:	08 95       	ret

000035ea <lcd_box>:
    35ea:	df 92       	push	r13
    35ec:	ef 92       	push	r14
    35ee:	ff 92       	push	r15
    35f0:	0f 93       	push	r16
    35f2:	1f 93       	push	r17
    35f4:	cf 93       	push	r28
    35f6:	df 93       	push	r29
    35f8:	f8 2e       	mov	r15, r24
    35fa:	d0 2e       	mov	r13, r16
    35fc:	44 23       	and	r20, r20
    35fe:	c1 f0       	breq	.+48     	; 0x3630 <lcd_box+0x46>
    3600:	16 2f       	mov	r17, r22
    3602:	82 2f       	mov	r24, r18
    3604:	86 0f       	add	r24, r22
    3606:	91 2d       	mov	r25, r1
    3608:	91 1d       	adc	r25, r1
    360a:	ec 01       	movw	r28, r24
    360c:	fa 94       	dec	r15
    360e:	ef 2c       	mov	r14, r15
    3610:	e4 0e       	add	r14, r20
    3612:	f3 94       	inc	r15
    3614:	08 c0       	rjmp	.+16     	; 0x3626 <lcd_box+0x3c>
    3616:	0d 2d       	mov	r16, r13
    3618:	21 2f       	mov	r18, r17
    361a:	4e 2d       	mov	r20, r14
    361c:	61 2f       	mov	r22, r17
    361e:	8f 2d       	mov	r24, r15
    3620:	0e 94 14 19 	call	0x3228	; 0x3228 <lcd_line>
    3624:	1f 5f       	subi	r17, 0xFF	; 255
    3626:	81 2f       	mov	r24, r17
    3628:	90 e0       	ldi	r25, 0x00	; 0
    362a:	8c 17       	cp	r24, r28
    362c:	9d 07       	cpc	r25, r29
    362e:	9c f3       	brlt	.-26     	; 0x3616 <lcd_box+0x2c>
    3630:	df 91       	pop	r29
    3632:	cf 91       	pop	r28
    3634:	1f 91       	pop	r17
    3636:	0f 91       	pop	r16
    3638:	ff 90       	pop	r15
    363a:	ef 90       	pop	r14
    363c:	df 90       	pop	r13
    363e:	08 95       	ret

00003640 <lcd_glyph>:
    3640:	2f 92       	push	r2
    3642:	3f 92       	push	r3
    3644:	5f 92       	push	r5
    3646:	6f 92       	push	r6
    3648:	7f 92       	push	r7
    364a:	8f 92       	push	r8
    364c:	9f 92       	push	r9
    364e:	af 92       	push	r10
    3650:	bf 92       	push	r11
    3652:	cf 92       	push	r12
    3654:	df 92       	push	r13
    3656:	ef 92       	push	r14
    3658:	ff 92       	push	r15
    365a:	0f 93       	push	r16
    365c:	1f 93       	push	r17
    365e:	cf 93       	push	r28
    3660:	df 93       	push	r29
    3662:	62 2e       	mov	r6, r18
    3664:	48 01       	movw	r8, r16
    3666:	96 2f       	mov	r25, r22
    3668:	97 70       	andi	r25, 0x07	; 7
    366a:	18 2f       	mov	r17, r24
    366c:	00 e8       	ldi	r16, 0x80	; 128
    366e:	bb 24       	eor	r11, r11
    3670:	24 2e       	mov	r2, r20
    3672:	28 0e       	add	r2, r24
    3674:	31 2c       	mov	r3, r1
    3676:	31 1c       	adc	r3, r1
    3678:	61 01       	movw	r12, r2
    367a:	76 2e       	mov	r7, r22
    367c:	76 94       	lsr	r7
    367e:	76 94       	lsr	r7
    3680:	76 94       	lsr	r7
    3682:	48 e0       	ldi	r20, 0x08	; 8
    3684:	54 2e       	mov	r5, r20
    3686:	a5 2c       	mov	r10, r5
    3688:	a9 1a       	sub	r10, r25
    368a:	c9 2f       	mov	r28, r25
    368c:	d0 e0       	ldi	r29, 0x00	; 0
    368e:	c3 5c       	subi	r28, 0xC3	; 195
    3690:	de 4f       	sbci	r29, 0xFE	; 254
    3692:	ff 24       	eor	r15, r15
    3694:	45 c0       	rjmp	.+138    	; 0x3720 <lcd_glyph+0xe0>
    3696:	27 2d       	mov	r18, r7
    3698:	7a 2d       	mov	r23, r10
    369a:	38 81       	ld	r19, Y
    369c:	a4 01       	movw	r20, r8
    369e:	4b 0d       	add	r20, r11
    36a0:	51 1d       	adc	r21, r1
    36a2:	66 2d       	mov	r22, r6
    36a4:	34 c0       	rjmp	.+104    	; 0x370e <lcd_glyph+0xce>
    36a6:	fa 01       	movw	r30, r20
    36a8:	84 91       	lpm	r24, Z
    36aa:	80 23       	and	r24, r16
    36ac:	e2 2f       	mov	r30, r18
    36ae:	f0 e0       	ldi	r31, 0x00	; 0
    36b0:	89 f0       	breq	.+34     	; 0x36d4 <lcd_glyph+0x94>
    36b2:	8a e7       	ldi	r24, 0x7A	; 122
    36b4:	90 e0       	ldi	r25, 0x00	; 0
    36b6:	1f 01       	movw	r2, r30
    36b8:	28 9e       	mul	r2, r24
    36ba:	f0 01       	movw	r30, r0
    36bc:	29 9e       	mul	r2, r25
    36be:	f0 0d       	add	r31, r0
    36c0:	38 9e       	mul	r3, r24
    36c2:	f0 0d       	add	r31, r0
    36c4:	11 24       	eor	r1, r1
    36c6:	ea 0f       	add	r30, r26
    36c8:	fb 1f       	adc	r31, r27
    36ca:	ea 5b       	subi	r30, 0xBA	; 186
    36cc:	fe 4f       	sbci	r31, 0xFE	; 254
    36ce:	80 81       	ld	r24, Z
    36d0:	83 2b       	or	r24, r19
    36d2:	12 c0       	rjmp	.+36     	; 0x36f8 <lcd_glyph+0xb8>
    36d4:	8a e7       	ldi	r24, 0x7A	; 122
    36d6:	90 e0       	ldi	r25, 0x00	; 0
    36d8:	1f 01       	movw	r2, r30
    36da:	28 9e       	mul	r2, r24
    36dc:	f0 01       	movw	r30, r0
    36de:	29 9e       	mul	r2, r25
    36e0:	f0 0d       	add	r31, r0
    36e2:	38 9e       	mul	r3, r24
    36e4:	f0 0d       	add	r31, r0
    36e6:	11 24       	eor	r1, r1
    36e8:	ea 0f       	add	r30, r26
    36ea:	fb 1f       	adc	r31, r27
    36ec:	ea 5b       	subi	r30, 0xBA	; 186
    36ee:	fe 4f       	sbci	r31, 0xFE	; 254
    36f0:	83 2f       	mov	r24, r19
    36f2:	80 95       	com	r24
    36f4:	90 81       	ld	r25, Z
    36f6:	89 23       	and	r24, r25
    36f8:	80 83       	st	Z, r24
    36fa:	71 50       	subi	r23, 0x01	; 1
    36fc:	11 f0       	breq	.+4      	; 0x3702 <lcd_glyph+0xc2>
    36fe:	33 0f       	add	r19, r19
    3700:	03 c0       	rjmp	.+6      	; 0x3708 <lcd_glyph+0xc8>
    3702:	2f 5f       	subi	r18, 0xFF	; 255
    3704:	75 2d       	mov	r23, r5
    3706:	31 e0       	ldi	r19, 0x01	; 1
    3708:	61 50       	subi	r22, 0x01	; 1
    370a:	4e 0d       	add	r20, r14
    370c:	5f 1d       	adc	r21, r15
    370e:	66 23       	and	r22, r22
    3710:	11 f0       	breq	.+4      	; 0x3716 <lcd_glyph+0xd6>
    3712:	24 30       	cpi	r18, 0x04	; 4
    3714:	40 f2       	brcs	.-112    	; 0x36a6 <lcd_glyph+0x66>
    3716:	06 95       	lsr	r16
    3718:	11 f4       	brne	.+4      	; 0x371e <lcd_glyph+0xde>
    371a:	b3 94       	inc	r11
    371c:	00 e8       	ldi	r16, 0x80	; 128
    371e:	1f 5f       	subi	r17, 0xFF	; 255
    3720:	a1 2f       	mov	r26, r17
    3722:	b0 e0       	ldi	r27, 0x00	; 0
    3724:	ac 15       	cp	r26, r12
    3726:	bd 05       	cpc	r27, r13
    3728:	0c f4       	brge	.+2      	; 0x372c <lcd_glyph+0xec>
    372a:	b5 cf       	rjmp	.-150    	; 0x3696 <lcd_glyph+0x56>
    372c:	df 91       	pop	r29
    372e:	cf 91       	pop	r28
    3730:	1f 91       	pop	r17
    3732:	0f 91       	pop	r16
    3734:	ff 90       	pop	r15
    3736:	ef 90       	pop	r14
    3738:	df 90       	pop	r13
    373a:	cf 90       	pop	r12
    373c:	bf 90       	pop	r11
    373e:	af 90       	pop	r10
    3740:	9f 90       	pop	r9
    3742:	8f 90       	pop	r8
    3744:	7f 90       	pop	r7
    3746:	6f 90       	pop	r6
    3748:	5f 90       	pop	r5
    374a:	3f 90       	pop	r3
    374c:	2f 90       	pop	r2
    374e:	08 95       	ret

00003750 <lcd_text_intern>:
    3750:	2f 92       	push	r2
    3752:	3f 92       	push	r3
    3754:	4f 92       	push	r4
    3756:	5f 92       	push	r5
    3758:	6f 92       	push	r6
    375a:	7f 92       	push	r7
    375c:	8f 92       	push	r8
    375e:	9f 92       	push	r9
    3760:	af 92       	push	r10
    3762:	bf 92       	push	r11
    3764:	cf 92       	push	r12
    3766:	df 92       	push	r13
    3768:	ef 92       	push	r14
    376a:	ff 92       	push	r15
    376c:	0f 93       	push	r16
    376e:	1f 93       	push	r17
    3770:	cf 93       	push	r28
    3772:	df 93       	push	r29
    3774:	cd b7       	in	r28, 0x3d	; 61
    3776:	de b7       	in	r29, 0x3e	; 62
    3778:	27 97       	sbiw	r28, 0x07	; 7
    377a:	0f b6       	in	r0, 0x3f	; 63
    377c:	f8 94       	cli
    377e:	de bf       	out	0x3e, r29	; 62
    3780:	0f be       	out	0x3f, r0	; 63
    3782:	cd bf       	out	0x3d, r28	; 61
    3784:	78 2f       	mov	r23, r24
    3786:	c6 2e       	mov	r12, r22
    3788:	3f 83       	std	Y+7, r19	; 0x07
    378a:	2e 83       	std	Y+6, r18	; 0x06
    378c:	0c 83       	std	Y+4, r16	; 0x04
    378e:	50 e0       	ldi	r21, 0x00	; 0
    3790:	ca 01       	movw	r24, r20
    3792:	88 0f       	add	r24, r24
    3794:	99 1f       	adc	r25, r25
    3796:	9a 01       	movw	r18, r20
    3798:	a3 e0       	ldi	r26, 0x03	; 3
    379a:	22 0f       	add	r18, r18
    379c:	33 1f       	adc	r19, r19
    379e:	aa 95       	dec	r26
    37a0:	e1 f7       	brne	.-8      	; 0x379a <lcd_text_intern+0x4a>
    37a2:	82 0f       	add	r24, r18
    37a4:	93 1f       	adc	r25, r19
    37a6:	dc 01       	movw	r26, r24
    37a8:	a1 50       	subi	r26, 0x01	; 1
    37aa:	bd 4f       	sbci	r27, 0xFD	; 253
    37ac:	fd 01       	movw	r30, r26
    37ae:	f4 91       	lpm	r31, Z
    37b0:	fb 83       	std	Y+3, r31	; 0x03
    37b2:	dc 01       	movw	r26, r24
    37b4:	a2 50       	subi	r26, 0x02	; 2
    37b6:	bd 4f       	sbci	r27, 0xFD	; 253
    37b8:	fd 01       	movw	r30, r26
    37ba:	f4 91       	lpm	r31, Z
    37bc:	fa 83       	std	Y+2, r31	; 0x02
    37be:	fc 01       	movw	r30, r24
    37c0:	ed 5f       	subi	r30, 0xFD	; 253
    37c2:	fc 4f       	sbci	r31, 0xFC	; 252
    37c4:	45 90       	lpm	r4, Z+
    37c6:	54 90       	lpm	r5, Z
    37c8:	fc 01       	movw	r30, r24
    37ca:	e0 50       	subi	r30, 0x00	; 0
    37cc:	fd 4f       	sbci	r31, 0xFD	; 253
    37ce:	65 90       	lpm	r6, Z+
    37d0:	74 90       	lpm	r7, Z
    37d2:	fc 01       	movw	r30, r24
    37d4:	eb 5f       	subi	r30, 0xFB	; 251
    37d6:	fc 4f       	sbci	r31, 0xFC	; 252
    37d8:	24 90       	lpm	r2, Z
    37da:	dc 01       	movw	r26, r24
    37dc:	aa 5f       	subi	r26, 0xFA	; 250
    37de:	bc 4f       	sbci	r27, 0xFC	; 252
    37e0:	fd 01       	movw	r30, r26
    37e2:	f4 91       	lpm	r31, Z
    37e4:	f9 83       	std	Y+1, r31	; 0x01
    37e6:	8e 5f       	subi	r24, 0xFE	; 254
    37e8:	9c 4f       	sbci	r25, 0xFC	; 252
    37ea:	fc 01       	movw	r30, r24
    37ec:	34 90       	lpm	r3, Z
    37ee:	00 23       	and	r16, r16
    37f0:	01 f1       	breq	.+64     	; 0x3832 <lcd_text_intern+0xe2>
    37f2:	ee 81       	ldd	r30, Y+6	; 0x06
    37f4:	ff 81       	ldd	r31, Y+7	; 0x07
    37f6:	64 91       	lpm	r22, Z
    37f8:	fa 81       	ldd	r31, Y+2	; 0x02
    37fa:	2f 2f       	mov	r18, r31
    37fc:	30 e0       	ldi	r19, 0x00	; 0
    37fe:	ca 01       	movw	r24, r20
    3800:	f3 e0       	ldi	r31, 0x03	; 3
    3802:	88 0f       	add	r24, r24
    3804:	99 1f       	adc	r25, r25
    3806:	fa 95       	dec	r31
    3808:	e1 f7       	brne	.-8      	; 0x3802 <lcd_text_intern+0xb2>
    380a:	44 0f       	add	r20, r20
    380c:	55 1f       	adc	r21, r21
    380e:	48 0f       	add	r20, r24
    3810:	59 1f       	adc	r21, r25
    3812:	49 5f       	subi	r20, 0xF9	; 249
    3814:	5c 4f       	sbci	r21, 0xFC	; 252
    3816:	fa 01       	movw	r30, r20
    3818:	f4 91       	lpm	r31, Z
    381a:	fd 83       	std	Y+5, r31	; 0x05
    381c:	4b 81       	ldd	r20, Y+3	; 0x03
    381e:	a4 2e       	mov	r10, r20
    3820:	bb 24       	eor	r11, r11
    3822:	a2 9e       	mul	r10, r18
    3824:	40 01       	movw	r8, r0
    3826:	a3 9e       	mul	r10, r19
    3828:	90 0c       	add	r9, r0
    382a:	b2 9e       	mul	r11, r18
    382c:	90 0c       	add	r9, r0
    382e:	11 24       	eor	r1, r1
    3830:	54 c0       	rjmp	.+168    	; 0x38da <lcd_text_intern+0x18a>
    3832:	ee 81       	ldd	r30, Y+6	; 0x06
    3834:	ff 81       	ldd	r31, Y+7	; 0x07
    3836:	60 81       	ld	r22, Z
    3838:	df cf       	rjmp	.-66     	; 0x37f8 <lcd_text_intern+0xa8>
    383a:	62 15       	cp	r22, r2
    383c:	18 f0       	brcs	.+6      	; 0x3844 <lcd_text_intern+0xf4>
    383e:	f9 81       	ldd	r31, Y+1	; 0x01
    3840:	f6 17       	cp	r31, r22
    3842:	08 f4       	brcc	.+2      	; 0x3846 <lcd_text_intern+0xf6>
    3844:	6d 81       	ldd	r22, Y+5	; 0x05
    3846:	36 2f       	mov	r19, r22
    3848:	32 19       	sub	r19, r2
    384a:	33 20       	and	r3, r3
    384c:	11 f0       	breq	.+4      	; 0x3852 <lcd_text_intern+0x102>
    384e:	f3 2c       	mov	r15, r3
    3850:	04 c0       	rjmp	.+8      	; 0x385a <lcd_text_intern+0x10a>
    3852:	f2 01       	movw	r30, r4
    3854:	e3 0f       	add	r30, r19
    3856:	f1 1d       	adc	r31, r1
    3858:	f4 90       	lpm	r15, Z
    385a:	d7 2e       	mov	r13, r23
    385c:	29 e7       	ldi	r18, 0x79	; 121
    385e:	27 17       	cp	r18, r23
    3860:	10 f4       	brcc	.+4      	; 0x3866 <lcd_text_intern+0x116>
    3862:	79 e7       	ldi	r23, 0x79	; 121
    3864:	d7 2e       	mov	r13, r23
    3866:	4f 2d       	mov	r20, r15
    3868:	4d 0d       	add	r20, r13
    386a:	51 2d       	mov	r21, r1
    386c:	51 1d       	adc	r21, r1
    386e:	4b 37       	cpi	r20, 0x7B	; 123
    3870:	51 05       	cpc	r21, r1
    3872:	1c f0       	brlt	.+6      	; 0x387a <lcd_text_intern+0x12a>
    3874:	6a e7       	ldi	r22, 0x7A	; 122
    3876:	f6 2e       	mov	r15, r22
    3878:	fd 18       	sub	r15, r13
    387a:	5f e1       	ldi	r21, 0x1F	; 31
    387c:	5c 15       	cp	r21, r12
    387e:	10 f4       	brcc	.+4      	; 0x3884 <lcd_text_intern+0x134>
    3880:	5f e1       	ldi	r21, 0x1F	; 31
    3882:	c5 2e       	mov	r12, r21
    3884:	c5 01       	movw	r24, r10
    3886:	8c 0d       	add	r24, r12
    3888:	91 1d       	adc	r25, r1
    388a:	81 97       	sbiw	r24, 0x21	; 33
    388c:	14 f4       	brge	.+4      	; 0x3892 <lcd_text_intern+0x142>
    388e:	2b 81       	ldd	r18, Y+3	; 0x03
    3890:	02 c0       	rjmp	.+4      	; 0x3896 <lcd_text_intern+0x146>
    3892:	20 e2       	ldi	r18, 0x20	; 32
    3894:	2c 19       	sub	r18, r12
    3896:	83 2f       	mov	r24, r19
    3898:	90 e0       	ldi	r25, 0x00	; 0
    389a:	88 9e       	mul	r8, r24
    389c:	80 01       	movw	r16, r0
    389e:	89 9e       	mul	r8, r25
    38a0:	10 0d       	add	r17, r0
    38a2:	98 9e       	mul	r9, r24
    38a4:	10 0d       	add	r17, r0
    38a6:	11 24       	eor	r1, r1
    38a8:	06 0d       	add	r16, r6
    38aa:	17 1d       	adc	r17, r7
    38ac:	ea 80       	ldd	r14, Y+2	; 0x02
    38ae:	4f 2d       	mov	r20, r15
    38b0:	6c 2d       	mov	r22, r12
    38b2:	8d 2d       	mov	r24, r13
    38b4:	0e 94 20 1b 	call	0x3640	; 0x3640 <lcd_glyph>
    38b8:	8e 81       	ldd	r24, Y+6	; 0x06
    38ba:	9f 81       	ldd	r25, Y+7	; 0x07
    38bc:	01 96       	adiw	r24, 0x01	; 1
    38be:	9f 83       	std	Y+7, r25	; 0x07
    38c0:	8e 83       	std	Y+6, r24	; 0x06
    38c2:	9c 81       	ldd	r25, Y+4	; 0x04
    38c4:	99 23       	and	r25, r25
    38c6:	21 f0       	breq	.+8      	; 0x38d0 <lcd_text_intern+0x180>
    38c8:	ee 81       	ldd	r30, Y+6	; 0x06
    38ca:	ff 81       	ldd	r31, Y+7	; 0x07
    38cc:	64 91       	lpm	r22, Z
    38ce:	03 c0       	rjmp	.+6      	; 0x38d6 <lcd_text_intern+0x186>
    38d0:	ee 81       	ldd	r30, Y+6	; 0x06
    38d2:	ff 81       	ldd	r31, Y+7	; 0x07
    38d4:	60 81       	ld	r22, Z
    38d6:	7f 2d       	mov	r23, r15
    38d8:	7d 0d       	add	r23, r13
    38da:	66 23       	and	r22, r22
    38dc:	09 f0       	breq	.+2      	; 0x38e0 <lcd_text_intern+0x190>
    38de:	ad cf       	rjmp	.-166    	; 0x383a <lcd_text_intern+0xea>
    38e0:	27 96       	adiw	r28, 0x07	; 7
    38e2:	0f b6       	in	r0, 0x3f	; 63
    38e4:	f8 94       	cli
    38e6:	de bf       	out	0x3e, r29	; 62
    38e8:	0f be       	out	0x3f, r0	; 63
    38ea:	cd bf       	out	0x3d, r28	; 61
    38ec:	df 91       	pop	r29
    38ee:	cf 91       	pop	r28
    38f0:	1f 91       	pop	r17
    38f2:	0f 91       	pop	r16
    38f4:	ff 90       	pop	r15
    38f6:	ef 90       	pop	r14
    38f8:	df 90       	pop	r13
    38fa:	cf 90       	pop	r12
    38fc:	bf 90       	pop	r11
    38fe:	af 90       	pop	r10
    3900:	9f 90       	pop	r9
    3902:	8f 90       	pop	r8
    3904:	7f 90       	pop	r7
    3906:	6f 90       	pop	r6
    3908:	5f 90       	pop	r5
    390a:	4f 90       	pop	r4
    390c:	3f 90       	pop	r3
    390e:	2f 90       	pop	r2
    3910:	08 95       	ret

00003912 <lcd_text>:
    3912:	0f 93       	push	r16
    3914:	00 e0       	ldi	r16, 0x00	; 0
    3916:	0e 94 a8 1b 	call	0x3750	; 0x3750 <lcd_text_intern>
    391a:	0f 91       	pop	r16
    391c:	08 95       	ret

0000391e <lcd_text_p>:
    391e:	0f 93       	push	r16
    3920:	01 e0       	ldi	r16, 0x01	; 1
    3922:	0e 94 a8 1b 	call	0x3750	; 0x3750 <lcd_text_intern>
    3926:	0f 91       	pop	r16
    3928:	08 95       	ret

0000392a <lcd_bitmap>:
    392a:	6f 92       	push	r6
    392c:	7f 92       	push	r7
    392e:	9f 92       	push	r9
    3930:	af 92       	push	r10
    3932:	bf 92       	push	r11
    3934:	cf 92       	push	r12
    3936:	df 92       	push	r13
    3938:	ef 92       	push	r14
    393a:	ff 92       	push	r15
    393c:	0f 93       	push	r16
    393e:	1f 93       	push	r17
    3940:	cf 93       	push	r28
    3942:	df 93       	push	r29
    3944:	cd b7       	in	r28, 0x3d	; 61
    3946:	de b7       	in	r29, 0x3e	; 62
    3948:	21 97       	sbiw	r28, 0x01	; 1
    394a:	0f b6       	in	r0, 0x3f	; 63
    394c:	f8 94       	cli
    394e:	de bf       	out	0x3e, r29	; 62
    3950:	0f be       	out	0x3f, r0	; 63
    3952:	cd bf       	out	0x3d, r28	; 61
    3954:	98 2e       	mov	r9, r24
    3956:	a6 2e       	mov	r10, r22
    3958:	fa 01       	movw	r30, r20
    395a:	b2 2e       	mov	r11, r18
    395c:	c4 90       	lpm	r12, Z
    395e:	31 96       	adiw	r30, 0x01	; 1
    3960:	d4 90       	lpm	r13, Z
    3962:	31 96       	adiw	r30, 0x01	; 1
    3964:	65 90       	lpm	r6, Z+
    3966:	74 90       	lpm	r7, Z
    3968:	90 e0       	ldi	r25, 0x00	; 0
    396a:	23 c0       	rjmp	.+70     	; 0x39b2 <lcd_bitmap+0x88>
    396c:	f3 01       	movw	r30, r6
    396e:	84 91       	lpm	r24, Z
    3970:	08 94       	sec
    3972:	61 1c       	adc	r6, r1
    3974:	71 1c       	adc	r7, r1
    3976:	f8 2e       	mov	r15, r24
    3978:	00 e0       	ldi	r16, 0x00	; 0
    397a:	10 e8       	ldi	r17, 0x80	; 128
    397c:	e9 2e       	mov	r14, r25
    397e:	ea 0c       	add	r14, r10
    3980:	15 c0       	rjmp	.+42     	; 0x39ac <lcd_bitmap+0x82>
    3982:	81 2f       	mov	r24, r17
    3984:	8f 21       	and	r24, r15
    3986:	41 f0       	breq	.+16     	; 0x3998 <lcd_bitmap+0x6e>
    3988:	4b 2d       	mov	r20, r11
    398a:	6e 2d       	mov	r22, r14
    398c:	80 2f       	mov	r24, r16
    398e:	89 0d       	add	r24, r9
    3990:	99 83       	std	Y+1, r25	; 0x01
    3992:	0e 94 ea 18 	call	0x31d4	; 0x31d4 <lcd_dot>
    3996:	99 81       	ldd	r25, Y+1	; 0x01
    3998:	16 95       	lsr	r17
    399a:	39 f4       	brne	.+14     	; 0x39aa <lcd_bitmap+0x80>
    399c:	f3 01       	movw	r30, r6
    399e:	84 91       	lpm	r24, Z
    39a0:	08 94       	sec
    39a2:	61 1c       	adc	r6, r1
    39a4:	71 1c       	adc	r7, r1
    39a6:	f8 2e       	mov	r15, r24
    39a8:	10 e8       	ldi	r17, 0x80	; 128
    39aa:	0f 5f       	subi	r16, 0xFF	; 255
    39ac:	0c 15       	cp	r16, r12
    39ae:	49 f7       	brne	.-46     	; 0x3982 <lcd_bitmap+0x58>
    39b0:	9f 5f       	subi	r25, 0xFF	; 255
    39b2:	9d 15       	cp	r25, r13
    39b4:	d9 f6       	brne	.-74     	; 0x396c <lcd_bitmap+0x42>
    39b6:	21 96       	adiw	r28, 0x01	; 1
    39b8:	0f b6       	in	r0, 0x3f	; 63
    39ba:	f8 94       	cli
    39bc:	de bf       	out	0x3e, r29	; 62
    39be:	0f be       	out	0x3f, r0	; 63
    39c0:	cd bf       	out	0x3d, r28	; 61
    39c2:	df 91       	pop	r29
    39c4:	cf 91       	pop	r28
    39c6:	1f 91       	pop	r17
    39c8:	0f 91       	pop	r16
    39ca:	ff 90       	pop	r15
    39cc:	ef 90       	pop	r14
    39ce:	df 90       	pop	r13
    39d0:	cf 90       	pop	r12
    39d2:	bf 90       	pop	r11
    39d4:	af 90       	pop	r10
    39d6:	9f 90       	pop	r9
    39d8:	7f 90       	pop	r7
    39da:	6f 90       	pop	r6
    39dc:	08 95       	ret

000039de <__divmodhi4>:
    39de:	97 fb       	bst	r25, 7
    39e0:	09 2e       	mov	r0, r25
    39e2:	07 26       	eor	r0, r23
    39e4:	0a d0       	rcall	.+20     	; 0x39fa <__divmodhi4_neg1>
    39e6:	77 fd       	sbrc	r23, 7
    39e8:	04 d0       	rcall	.+8      	; 0x39f2 <__divmodhi4_neg2>
    39ea:	0c d0       	rcall	.+24     	; 0x3a04 <__udivmodhi4>
    39ec:	06 d0       	rcall	.+12     	; 0x39fa <__divmodhi4_neg1>
    39ee:	00 20       	and	r0, r0
    39f0:	1a f4       	brpl	.+6      	; 0x39f8 <__divmodhi4_exit>

000039f2 <__divmodhi4_neg2>:
    39f2:	70 95       	com	r23
    39f4:	61 95       	neg	r22
    39f6:	7f 4f       	sbci	r23, 0xFF	; 255

000039f8 <__divmodhi4_exit>:
    39f8:	08 95       	ret

000039fa <__divmodhi4_neg1>:
    39fa:	f6 f7       	brtc	.-4      	; 0x39f8 <__divmodhi4_exit>
    39fc:	90 95       	com	r25
    39fe:	81 95       	neg	r24
    3a00:	9f 4f       	sbci	r25, 0xFF	; 255
    3a02:	08 95       	ret

00003a04 <__udivmodhi4>:
    3a04:	aa 1b       	sub	r26, r26
    3a06:	bb 1b       	sub	r27, r27
    3a08:	51 e1       	ldi	r21, 0x11	; 17
    3a0a:	07 c0       	rjmp	.+14     	; 0x3a1a <__udivmodhi4_ep>

00003a0c <__udivmodhi4_loop>:
    3a0c:	aa 1f       	adc	r26, r26
    3a0e:	bb 1f       	adc	r27, r27
    3a10:	a6 17       	cp	r26, r22
    3a12:	b7 07       	cpc	r27, r23
    3a14:	10 f0       	brcs	.+4      	; 0x3a1a <__udivmodhi4_ep>
    3a16:	a6 1b       	sub	r26, r22
    3a18:	b7 0b       	sbc	r27, r23

00003a1a <__udivmodhi4_ep>:
    3a1a:	88 1f       	adc	r24, r24
    3a1c:	99 1f       	adc	r25, r25
    3a1e:	5a 95       	dec	r21
    3a20:	a9 f7       	brne	.-22     	; 0x3a0c <__udivmodhi4_loop>
    3a22:	80 95       	com	r24
    3a24:	90 95       	com	r25
    3a26:	bc 01       	movw	r22, r24
    3a28:	cd 01       	movw	r24, r26
    3a2a:	08 95       	ret

00003a2c <_exit>:
    3a2c:	ff cf       	rjmp	.-2      	; 0x3a2c <_exit>
